
dpi：     文件格式 elf64-x86-64
dpi
体系结构：i386:x86-64， 标志 0x00000112：
EXEC_P, HAS_SYMS, D_PAGED
起始地址 0x0000000000400820

程序头：
    PHDR off    0x0000000000000040 vaddr 0x0000000000400040 paddr 0x0000000000400040 align 2**3
         filesz 0x00000000000001f8 memsz 0x00000000000001f8 flags r-x
  INTERP off    0x0000000000000238 vaddr 0x0000000000400238 paddr 0x0000000000400238 align 2**0
         filesz 0x000000000000001c memsz 0x000000000000001c flags r--
    LOAD off    0x0000000000000000 vaddr 0x0000000000400000 paddr 0x0000000000400000 align 2**21
         filesz 0x0000000000001464 memsz 0x0000000000001464 flags r-x
    LOAD off    0x0000000000001e00 vaddr 0x0000000000601e00 paddr 0x0000000000601e00 align 2**21
         filesz 0x0000000000000288 memsz 0x00000000000002b0 flags rw-
 DYNAMIC off    0x0000000000001e18 vaddr 0x0000000000601e18 paddr 0x0000000000601e18 align 2**3
         filesz 0x00000000000001e0 memsz 0x00000000000001e0 flags rw-
    NOTE off    0x0000000000000254 vaddr 0x0000000000400254 paddr 0x0000000000400254 align 2**2
         filesz 0x0000000000000044 memsz 0x0000000000000044 flags r--
EH_FRAME off    0x0000000000001298 vaddr 0x0000000000401298 paddr 0x0000000000401298 align 2**2
         filesz 0x0000000000000054 memsz 0x0000000000000054 flags r--
   STACK off    0x0000000000000000 vaddr 0x0000000000000000 paddr 0x0000000000000000 align 2**4
         filesz 0x0000000000000000 memsz 0x0000000000000000 flags rw-
   RELRO off    0x0000000000001e00 vaddr 0x0000000000601e00 paddr 0x0000000000601e00 align 2**0
         filesz 0x0000000000000200 memsz 0x0000000000000200 flags r--

动态节：
  NEEDED               libpcap.so.0.8
  NEEDED               libc.so.6
  INIT                 0x0000000000400718
  FINI                 0x00000000004010a4
  INIT_ARRAY           0x0000000000601e00
  INIT_ARRAYSZ         0x0000000000000008
  FINI_ARRAY           0x0000000000601e08
  FINI_ARRAYSZ         0x0000000000000008
  GNU_HASH             0x0000000000400298
  STRTAB               0x0000000000400470
  SYMTAB               0x00000000004002c0
  STRSZ                0x0000000000000103
  SYMENT               0x0000000000000018
  DEBUG                0x0000000000000000
  PLTGOT               0x0000000000602000
  PLTRELSZ             0x0000000000000120
  PLTREL               0x0000000000000007
  JMPREL               0x00000000004005f8
  RELA                 0x00000000004005c8
  RELASZ               0x0000000000000030
  RELAENT              0x0000000000000018
  VERNEED              0x0000000000400598
  VERNEEDNUM           0x0000000000000001
  VERSYM               0x0000000000400574

版本引用：
  required from libc.so.6:
    0x0d696914 0x00 03 GLIBC_2.4
    0x09691a75 0x00 02 GLIBC_2.2.5

节：
Idx Name          Size      VMA               LMA               File off  Algn
  0 .interp       0000001c  0000000000400238  0000000000400238  00000238  2**0
                  CONTENTS, ALLOC, LOAD, READONLY, DATA
  1 .note.ABI-tag 00000020  0000000000400254  0000000000400254  00000254  2**2
                  CONTENTS, ALLOC, LOAD, READONLY, DATA
  2 .note.gnu.build-id 00000024  0000000000400274  0000000000400274  00000274  2**2
                  CONTENTS, ALLOC, LOAD, READONLY, DATA
  3 .gnu.hash     00000024  0000000000400298  0000000000400298  00000298  2**3
                  CONTENTS, ALLOC, LOAD, READONLY, DATA
  4 .dynsym       000001b0  00000000004002c0  00000000004002c0  000002c0  2**3
                  CONTENTS, ALLOC, LOAD, READONLY, DATA
  5 .dynstr       00000103  0000000000400470  0000000000400470  00000470  2**0
                  CONTENTS, ALLOC, LOAD, READONLY, DATA
  6 .gnu.version  00000024  0000000000400574  0000000000400574  00000574  2**1
                  CONTENTS, ALLOC, LOAD, READONLY, DATA
  7 .gnu.version_r 00000030  0000000000400598  0000000000400598  00000598  2**3
                  CONTENTS, ALLOC, LOAD, READONLY, DATA
  8 .rela.dyn     00000030  00000000004005c8  00000000004005c8  000005c8  2**3
                  CONTENTS, ALLOC, LOAD, READONLY, DATA
  9 .rela.plt     00000120  00000000004005f8  00000000004005f8  000005f8  2**3
                  CONTENTS, ALLOC, LOAD, READONLY, DATA
 10 .init         0000001a  0000000000400718  0000000000400718  00000718  2**2
                  CONTENTS, ALLOC, LOAD, READONLY, CODE
 11 .plt          000000d0  0000000000400740  0000000000400740  00000740  2**4
                  CONTENTS, ALLOC, LOAD, READONLY, CODE
 12 .plt.got      00000008  0000000000400810  0000000000400810  00000810  2**3
                  CONTENTS, ALLOC, LOAD, READONLY, CODE
 13 .text         00000882  0000000000400820  0000000000400820  00000820  2**4
                  CONTENTS, ALLOC, LOAD, READONLY, CODE
 14 .fini         00000009  00000000004010a4  00000000004010a4  000010a4  2**2
                  CONTENTS, ALLOC, LOAD, READONLY, CODE
 15 .rodata       000001e6  00000000004010b0  00000000004010b0  000010b0  2**3
                  CONTENTS, ALLOC, LOAD, READONLY, DATA
 16 .eh_frame_hdr 00000054  0000000000401298  0000000000401298  00001298  2**2
                  CONTENTS, ALLOC, LOAD, READONLY, DATA
 17 .eh_frame     00000174  00000000004012f0  00000000004012f0  000012f0  2**3
                  CONTENTS, ALLOC, LOAD, READONLY, DATA
 18 .init_array   00000008  0000000000601e00  0000000000601e00  00001e00  2**3
                  CONTENTS, ALLOC, LOAD, DATA
 19 .fini_array   00000008  0000000000601e08  0000000000601e08  00001e08  2**3
                  CONTENTS, ALLOC, LOAD, DATA
 20 .jcr          00000008  0000000000601e10  0000000000601e10  00001e10  2**3
                  CONTENTS, ALLOC, LOAD, DATA
 21 .dynamic      000001e0  0000000000601e18  0000000000601e18  00001e18  2**3
                  CONTENTS, ALLOC, LOAD, DATA
 22 .got          00000008  0000000000601ff8  0000000000601ff8  00001ff8  2**3
                  CONTENTS, ALLOC, LOAD, DATA
 23 .got.plt      00000078  0000000000602000  0000000000602000  00002000  2**3
                  CONTENTS, ALLOC, LOAD, DATA
 24 .data         00000010  0000000000602078  0000000000602078  00002078  2**3
                  CONTENTS, ALLOC, LOAD, DATA
 25 .bss          00000010  00000000006020a0  00000000006020a0  00002088  2**5
                  ALLOC
 26 .comment      00000035  0000000000000000  0000000000000000  00002088  2**0
                  CONTENTS, READONLY
 27 .debug_aranges 00000060  0000000000000000  0000000000000000  000020bd  2**0
                  CONTENTS, READONLY, DEBUGGING
 28 .debug_info   000009ac  0000000000000000  0000000000000000  0000211d  2**0
                  CONTENTS, READONLY, DEBUGGING
 29 .debug_abbrev 000002ad  0000000000000000  0000000000000000  00002ac9  2**0
                  CONTENTS, READONLY, DEBUGGING
 30 .debug_line   00000259  0000000000000000  0000000000000000  00002d76  2**0
                  CONTENTS, READONLY, DEBUGGING
 31 .debug_str    000003bf  0000000000000000  0000000000000000  00002fcf  2**0
                  CONTENTS, READONLY, DEBUGGING
SYMBOL TABLE:
0000000000400238 l    d  .interp	0000000000000000              .interp
0000000000400254 l    d  .note.ABI-tag	0000000000000000              .note.ABI-tag
0000000000400274 l    d  .note.gnu.build-id	0000000000000000              .note.gnu.build-id
0000000000400298 l    d  .gnu.hash	0000000000000000              .gnu.hash
00000000004002c0 l    d  .dynsym	0000000000000000              .dynsym
0000000000400470 l    d  .dynstr	0000000000000000              .dynstr
0000000000400574 l    d  .gnu.version	0000000000000000              .gnu.version
0000000000400598 l    d  .gnu.version_r	0000000000000000              .gnu.version_r
00000000004005c8 l    d  .rela.dyn	0000000000000000              .rela.dyn
00000000004005f8 l    d  .rela.plt	0000000000000000              .rela.plt
0000000000400718 l    d  .init	0000000000000000              .init
0000000000400740 l    d  .plt	0000000000000000              .plt
0000000000400810 l    d  .plt.got	0000000000000000              .plt.got
0000000000400820 l    d  .text	0000000000000000              .text
00000000004010a4 l    d  .fini	0000000000000000              .fini
00000000004010b0 l    d  .rodata	0000000000000000              .rodata
0000000000401298 l    d  .eh_frame_hdr	0000000000000000              .eh_frame_hdr
00000000004012f0 l    d  .eh_frame	0000000000000000              .eh_frame
0000000000601e00 l    d  .init_array	0000000000000000              .init_array
0000000000601e08 l    d  .fini_array	0000000000000000              .fini_array
0000000000601e10 l    d  .jcr	0000000000000000              .jcr
0000000000601e18 l    d  .dynamic	0000000000000000              .dynamic
0000000000601ff8 l    d  .got	0000000000000000              .got
0000000000602000 l    d  .got.plt	0000000000000000              .got.plt
0000000000602078 l    d  .data	0000000000000000              .data
00000000006020a0 l    d  .bss	0000000000000000              .bss
0000000000000000 l    d  .comment	0000000000000000              .comment
0000000000000000 l    d  .debug_aranges	0000000000000000              .debug_aranges
0000000000000000 l    d  .debug_info	0000000000000000              .debug_info
0000000000000000 l    d  .debug_abbrev	0000000000000000              .debug_abbrev
0000000000000000 l    d  .debug_line	0000000000000000              .debug_line
0000000000000000 l    d  .debug_str	0000000000000000              .debug_str
0000000000000000 l    df *ABS*	0000000000000000              crtstuff.c
0000000000601e10 l     O .jcr	0000000000000000              __JCR_LIST__
0000000000400850 l     F .text	0000000000000000              deregister_tm_clones
0000000000400890 l     F .text	0000000000000000              register_tm_clones
00000000004008d0 l     F .text	0000000000000000              __do_global_dtors_aux
00000000006020a8 l     O .bss	0000000000000001              completed.7594
0000000000601e08 l     O .fini_array	0000000000000000              __do_global_dtors_aux_fini_array_entry
00000000004008f0 l     F .text	0000000000000000              frame_dummy
0000000000601e00 l     O .init_array	0000000000000000              __frame_dummy_init_array_entry
0000000000000000 l    df *ABS*	0000000000000000              dpi.c
00000000006020ac l     O .bss	0000000000000004              count
0000000000000000 l    df *ABS*	0000000000000000              port.c
0000000000000000 l    df *ABS*	0000000000000000              crtstuff.c
0000000000401460 l     O .eh_frame	0000000000000000              __FRAME_END__
0000000000601e10 l     O .jcr	0000000000000000              __JCR_END__
0000000000000000 l    df *ABS*	0000000000000000              
0000000000601e08 l       .init_array	0000000000000000              __init_array_end
0000000000601e18 l     O .dynamic	0000000000000000              _DYNAMIC
0000000000601e00 l       .init_array	0000000000000000              __init_array_start
0000000000401298 l       .eh_frame_hdr	0000000000000000              __GNU_EH_FRAME_HDR
0000000000602000 l     O .got.plt	0000000000000000              _GLOBAL_OFFSET_TABLE_
00000000004010a0 g     F .text	0000000000000002              __libc_csu_fini
0000000000000000  w      *UND*	0000000000000000              _ITM_deregisterTMCloneTable
0000000000602078  w      .data	0000000000000000              data_start
0000000000000000       F *UND*	0000000000000000              puts@@GLIBC_2.2.5
0000000000602088 g       .data	0000000000000000              _edata
00000000004010a4 g     F .fini	0000000000000000              _fini
0000000000000000       F *UND*	0000000000000000              __stack_chk_fail@@GLIBC_2.4
0000000000000000       F *UND*	0000000000000000              printf@@GLIBC_2.2.5
0000000000000000       F *UND*	0000000000000000              pcap_close
0000000000000000       F *UND*	0000000000000000              __libc_start_main@@GLIBC_2.2.5
0000000000602078 g       .data	0000000000000000              __data_start
0000000000400f52 g     F .text	00000000000000d3              isARPorRARP
0000000000000000       F *UND*	0000000000000000              pcap_open_offline
0000000000000000       F *UND*	0000000000000000              fprintf@@GLIBC_2.2.5
0000000000000000  w      *UND*	0000000000000000              __gmon_start__
0000000000602080 g     O .data	0000000000000000              .hidden __dso_handle
00000000004010b0 g     O .rodata	0000000000000004              _IO_stdin_used
0000000000000000       F *UND*	0000000000000000              pcap_loop
0000000000401030 g     F .text	0000000000000065              __libc_csu_init
0000000000400ace g     F .text	000000000000040d              isPort
00000000006020b0 g       .bss	0000000000000000              _end
0000000000400820 g     F .text	000000000000002a              _start
0000000000602088 g       .bss	0000000000000000              __bss_start
000000000040099c g     F .text	0000000000000132              main
0000000000000000       F *UND*	0000000000000000              ntohs@@GLIBC_2.2.5
0000000000400edb g     F .text	0000000000000077              isHTTP
0000000000000000  w      *UND*	0000000000000000              _Jv_RegisterClasses
0000000000000000       F *UND*	0000000000000000              sprintf@@GLIBC_2.2.5
0000000000000000       F *UND*	0000000000000000              fwrite@@GLIBC_2.2.5
0000000000602088 g     O .data	0000000000000000              .hidden __TMC_END__
0000000000000000  w      *UND*	0000000000000000              _ITM_registerTMCloneTable
0000000000400916 g     F .text	0000000000000086              my_callback
0000000000400718 g     F .init	0000000000000000              _init
0000000000000000       F *UND*	0000000000000000              strstr@@GLIBC_2.2.5
00000000006020a0 g     O .bss	0000000000000008              stderr@@GLIBC_2.2.5


Contents of section .interp:
 400238 2f6c6962 36342f6c 642d6c69 6e75782d  /lib64/ld-linux-
 400248 7838362d 36342e73 6f2e3200           x86-64.so.2.    
Contents of section .note.ABI-tag:
 400254 04000000 10000000 01000000 474e5500  ............GNU.
 400264 00000000 02000000 06000000 20000000  ............ ...
Contents of section .note.gnu.build-id:
 400274 04000000 14000000 03000000 474e5500  ............GNU.
 400284 22de9e04 fa354098 e99a78ff 9b4b32bf  "....5@...x..K2.
 400294 8b437a18                             .Cz.            
Contents of section .gnu.hash:
 400298 02000000 11000000 01000000 06000000  ................
 4002a8 00010000 00000002 00000000 11000000  ................
 4002b8 39f28b1c                             9...            
Contents of section .dynsym:
 4002c0 00000000 00000000 00000000 00000000  ................
 4002d0 00000000 00000000 10000000 20000000  ............ ...
 4002e0 00000000 00000000 00000000 00000000  ................
 4002f0 a2000000 12000000 00000000 00000000  ................
 400300 00000000 00000000 a7000000 12000000  ................
 400310 00000000 00000000 00000000 00000000  ................
 400320 ce000000 12000000 00000000 00000000  ................
 400330 00000000 00000000 73000000 12000000  ........s.......
 400340 00000000 00000000 00000000 00000000  ................
 400350 d5000000 12000000 00000000 00000000  ................
 400360 00000000 00000000 7e000000 12000000  ........~.......
 400370 00000000 00000000 00000000 00000000  ................
 400380 cd000000 12000000 00000000 00000000  ................
 400390 00000000 00000000 2c000000 20000000  ........,... ...
 4003a0 00000000 00000000 00000000 00000000  ................
 4003b0 69000000 12000000 00000000 00000000  i...............
 4003c0 00000000 00000000 e7000000 12000000  ................
 4003d0 00000000 00000000 00000000 00000000  ................
 4003e0 3b000000 20000000 00000000 00000000  ;... ...........
 4003f0 00000000 00000000 9a000000 12000000  ................
 400400 00000000 00000000 00000000 00000000  ................
 400410 c6000000 12000000 00000000 00000000  ................
 400420 00000000 00000000 4f000000 20000000  ........O... ...
 400430 00000000 00000000 00000000 00000000  ................
 400440 b8000000 12000000 00000000 00000000  ................
 400450 00000000 00000000 bf000000 11001a00  ................
 400460 a0206000 00000000 08000000 00000000  . `.............
Contents of section .dynstr:
 400470 006c6962 70636170 2e736f2e 302e3800  .libpcap.so.0.8.
 400480 5f49544d 5f646572 65676973 74657254  _ITM_deregisterT
 400490 4d436c6f 6e655461 626c6500 5f5f676d  MCloneTable.__gm
 4004a0 6f6e5f73 74617274 5f5f005f 4a765f52  on_start__._Jv_R
 4004b0 65676973 74657243 6c617373 6573005f  egisterClasses._
 4004c0 49544d5f 72656769 73746572 544d436c  ITM_registerTMCl
 4004d0 6f6e6554 61626c65 00706361 705f6c6f  oneTable.pcap_lo
 4004e0 6f700070 6361705f 636c6f73 65007063  op.pcap_close.pc
 4004f0 61705f6f 70656e5f 6f66666c 696e6500  ap_open_offline.
 400500 6c696263 2e736f2e 36007370 72696e74  libc.so.6.sprint
 400510 66007075 7473005f 5f737461 636b5f63  f.puts.__stack_c
 400520 686b5f66 61696c00 73747273 74720073  hk_fail.strstr.s
 400530 74646572 72006677 72697465 00667072  tderr.fwrite.fpr
 400540 696e7466 005f5f6c 6962635f 73746172  intf.__libc_star
 400550 745f6d61 696e006e 746f6873 00474c49  t_main.ntohs.GLI
 400560 42435f32 2e340047 4c494243 5f322e32  BC_2.4.GLIBC_2.2
 400570 2e3500                               .5.             
Contents of section .gnu.version:
 400574 00000000 02000300 02000000 02000000  ................
 400584 02000000 00000200 00000200 02000000  ................
 400594 02000200                             ....            
Contents of section .gnu.version_r:
 400598 01000200 90000000 10000000 00000000  ................
 4005a8 1469690d 00000300 ed000000 10000000  .ii.............
 4005b8 751a6909 00000200 f7000000 00000000  u.i.............
Contents of section .rela.dyn:
 4005c8 f81f6000 00000000 06000000 09000000  ..`.............
 4005d8 00000000 00000000 a0206000 00000000  ......... `.....
 4005e8 05000000 11000000 00000000 00000000  ................
Contents of section .rela.plt:
 4005f8 18206000 00000000 07000000 02000000  . `.............
 400608 00000000 00000000 20206000 00000000  ........  `.....
 400618 07000000 03000000 00000000 00000000  ................
 400628 28206000 00000000 07000000 04000000  ( `.............
 400638 00000000 00000000 30206000 00000000  ........0 `.....
 400648 07000000 05000000 00000000 00000000  ................
 400658 38206000 00000000 07000000 06000000  8 `.............
 400668 00000000 00000000 40206000 00000000  ........@ `.....
 400678 07000000 07000000 00000000 00000000  ................
 400688 48206000 00000000 07000000 08000000  H `.............
 400698 00000000 00000000 50206000 00000000  ........P `.....
 4006a8 07000000 0a000000 00000000 00000000  ................
 4006b8 58206000 00000000 07000000 0b000000  X `.............
 4006c8 00000000 00000000 60206000 00000000  ........` `.....
 4006d8 07000000 0d000000 00000000 00000000  ................
 4006e8 68206000 00000000 07000000 0e000000  h `.............
 4006f8 00000000 00000000 70206000 00000000  ........p `.....
 400708 07000000 10000000 00000000 00000000  ................
Contents of section .init:
 400718 4883ec08 488b05d5 18200048 85c07405  H...H.... .H..t.
 400728 e8e30000 004883c4 08c3               .....H....      
Contents of section .plt:
 400740 ff35c218 2000ff25 c4182000 0f1f4000  .5.. ..%.. ...@.
 400750 ff25c218 20006800 000000e9 e0ffffff  .%.. .h.........
 400760 ff25ba18 20006801 000000e9 d0ffffff  .%.. .h.........
 400770 ff25b218 20006802 000000e9 c0ffffff  .%.. .h.........
 400780 ff25aa18 20006803 000000e9 b0ffffff  .%.. .h.........
 400790 ff25a218 20006804 000000e9 a0ffffff  .%.. .h.........
 4007a0 ff259a18 20006805 000000e9 90ffffff  .%.. .h.........
 4007b0 ff259218 20006806 000000e9 80ffffff  .%.. .h.........
 4007c0 ff258a18 20006807 000000e9 70ffffff  .%.. .h.....p...
 4007d0 ff258218 20006808 000000e9 60ffffff  .%.. .h.....`...
 4007e0 ff257a18 20006809 000000e9 50ffffff  .%z. .h.....P...
 4007f0 ff257218 2000680a 000000e9 40ffffff  .%r. .h.....@...
 400800 ff256a18 2000680b 000000e9 30ffffff  .%j. .h.....0...
Contents of section .plt.got:
 400810 ff25e217 20006690                    .%.. .f.        
Contents of section .text:
 400820 31ed4989 d15e4889 e24883e4 f0505449  1.I..^H..H...PTI
 400830 c7c0a010 400048c7 c1301040 0048c7c7  ....@.H..0.@.H..
 400840 9c094000 e847ffff fff4660f 1f440000  ..@..G....f..D..
 400850 b88f2060 0055482d 88206000 4883f80e  .. `.UH-. `.H...
 400860 4889e576 1bb80000 00004885 c074115d  H..v......H..t.]
 400870 bf882060 00ffe066 0f1f8400 00000000  .. `...f........
 400880 5dc30f1f 4000662e 0f1f8400 00000000  ]...@.f.........
 400890 be882060 00554881 ee882060 0048c1fe  .. `.UH... `.H..
 4008a0 034889e5 4889f048 c1e83f48 01c648d1  .H..H..H..?H..H.
 4008b0 fe7415b8 00000000 4885c074 0b5dbf88  .t......H..t.]..
 4008c0 206000ff e00f1f00 5dc3660f 1f440000   `......].f..D..
 4008d0 803dd117 20000075 11554889 e5e86eff  .=.. ..u.UH...n.
 4008e0 ffff5dc6 05be1720 0001f3c3 0f1f4000  ..].... ......@.
 4008f0 bf101e60 0048833f 007505eb 930f1f00  ...`.H.?.u......
 400900 b8000000 004885c0 74f15548 89e5ffd0  .....H..t.UH....
 400910 5de97aff ffff5548 89e54883 ec504889  ].z...UH..H..PH.
 400920 7dc84889 75c04889 55b86448 8b042528  }.H.u.H.U.dH..%(
 400930 00000048 8945f831 c08b056d 17200083  ...H.E.1...m. ..
 400940 c0018905 64172000 8b155e17 2000488b  ....d. ...^. .H.
 400950 45c08b40 1089c148 8b45b889 ce4889c7  E..@...H.E...H..
 400960 e8690100 008945dc 488b45b8 4883c00e  .i....E.H.E.H...
 400970 488b1048 8955e048 8b500848 8955e88b  H..H.U.H.P.H.U..
 400980 40108945 f090488b 45f86448 33042528  @..E..H.E.dH3.%(
 400990 00000074 05e8c6fd ffffc9c3 554889e5  ...t........UH..
 4009a0 4881ec30 01000089 bddcfeff ff4889b5  H..0.........H..
 4009b0 d0feffff 64488b04 25280000 00488945  ....dH..%(...H.E
 4009c0 f831c0c7 85e4feff ff000000 0083bddc  .1..............
 4009d0 feffff02 742d488b 05c31620 004889c1  ....t-H.... .H..
 4009e0 ba140000 00be0100 0000bfb8 104000e8  .............@..
 4009f0 fcfdffff c785e4fe ffff0100 0000e9af  ................
 400a00 00000048 8b85d0fe ffff4883 c008488b  ...H......H...H.
 400a10 00488d95 f0feffff 4889d648 89c7e87d  .H......H..H...}
 400a20 fdffff48 8985e8fe ffff4883 bde8feff  ...H......H.....
 400a30 ff00753a 488b85d0 feffff48 83c00848  ..u:H......H...H
 400a40 8b10488b 05571620 00488d8d f0feffff  ..H..W. .H......
 400a50 bed01040 004889c7 b8000000 00e84efd  ...@.H........N.
 400a60 ffffc785 e4feffff 02000000 eb44488b  .............DH.
 400a70 85e8feff ffb90000 0000ba16 094000be  .............@..
 400a80 ffffffff 4889c7e8 34fdffff 8b051a16  ....H...4.......
 400a90 200089c6 bff31040 00b80000 0000e8cd   ......@........
 400aa0 fcffff48 8b85e8fe ffff4889 c7e8cefc  ...H......H.....
 400ab0 ffff8b85 e4feffff 488b4df8 6448330c  ........H.M.dH3.
 400ac0 25280000 007405e8 94fcffff c9c35548  %(...t........UH
 400ad0 89e54881 ecc00000 004889bd 48ffffff  ..H......H..H...
 400ae0 89b544ff ffff8995 40ffffff 64488b04  ..D.....@...dH..
 400af0 25280000 00488945 f831c0c7 8554ffff  %(...H.E.1...T..
 400b00 ff000000 00c78558 ffffff00 000000c7  .......X........
 400b10 855cffff ff000000 0048c745 d0000000  .\.......H.E....
 400b20 0048c745 d8000000 0048c745 e0000000  .H.E.....H.E....
 400b30 0048c745 e8000000 0048c745 b0000000  .H.E.....H.E....
 400b40 00c745b8 00000000 c645bc00 48c745c0  ..E......E..H.E.
 400b50 00000000 c745c800 000000c6 45cc0048  .....E......E..H
 400b60 8b8548ff ffff488b 10488955 808b5008  ..H...H..H.U..P.
 400b70 8955880f b7400c66 89458c48 8b8548ff  .U...@.f.E.H..H.
 400b80 ffff4883 c00e488b 10488955 90488b50  ..H...H..H.U.H.P
 400b90 08488955 988b4010 8945a048 8b8548ff  .H.U..@..E.H..H.
 400ba0 ffff4883 c022488b 10488995 60ffffff  ..H.."H..H..`...
 400bb0 488b5008 48899568 ffffff8b 40108985  H.P.H..h....@...
 400bc0 70ffffff c78554ff ffff0000 0000e981  p.....T.........
 400bd0 0000008b 8554ffff ff489848 8d558048  .....T...H.H.U.H
 400be0 01d00fb6 000fb6c0 8b9554ff ffff01d2  ..........T.....
 400bf0 4863d248 8d4db048 01d189c2 be001140  Hc.H.M.H.......@
 400c00 004889cf b8000000 00e8d2fb ffff8b85  .H..............
 400c10 54ffffff 4898488d 55804883 c2064801  T...H.H.U.H...H.
 400c20 d00fb600 0fb6c08b 9554ffff ff01d248  .........T.....H
 400c30 63d2488d 4dc04801 d189c2be 00114000  c.H.M.H.......@.
 400c40 4889cfb8 00000000 e893fbff ff838554  H..............T
 400c50 ffffff01 83bd54ff ffff050f 8e72ffff  ......T......r..
 400c60 ff0fb785 62ffffff 0fb7c089 c7e85efb  ....b.........^.
 400c70 ffff0fb7 c089855c ffffffc7 8554ffff  .......\.....T..
 400c80 ff000000 00e9ec00 00008b85 54ffffff  ............T...
 400c90 48980fb6 44059c0f b6c08b95 54ffffff  H...D.......T...
 400ca0 c1e20248 63d2488d 4dd04801 d189c2be  ...Hc.H.M.H.....
 400cb0 05114000 4889cfb8 00000000 e81ffbff  ..@.H...........
 400cc0 ff8b8554 ffffff48 980fb644 05a00fb6  ...T...H...D....
 400cd0 c08b9554 ffffffc1 e2024863 d2488d4d  ...T......Hc.H.M
 400ce0 e04801d1 89c2be05 11400048 89cfb800  .H.......@.H....
 400cf0 000000e8 e8faffff 83bd54ff ffff0375  ..........T....u
 400d00 6e8b8554 ffffff48 980fb644 059c0fb6  n..T...H...D....
 400d10 c08b9554 ffffffc1 e2024863 d2488d4d  ...T......Hc.H.M
 400d20 d04801d1 89c2be0b 11400048 89cfb800  .H.......@.H....
 400d30 000000e8 a8faffff 8b8554ff ffff4898  ..........T...H.
 400d40 0fb64405 a00fb6c0 8b9554ff ffffc1e2  ..D.......T.....
 400d50 024863d2 488d4de0 4801d189 c2be0b11  .Hc.H.M.H.......
 400d60 40004889 cfb80000 0000e871 faffff83  @.H........q....
 400d70 8554ffff ff0183bd 54ffffff 030f8e07  .T......T.......
 400d80 ffffff8b 855cffff ff83f817 0f848900  .....\..........
 400d90 000083f8 177f0f83 f8157451 83f81674  ..........tQ...t
 400da0 1ee9f500 000083f8 500f8497 0000003d  ........P......=
 400db0 bb010000 0f84b700 0000e9dc 000000c7  ................
 400dc0 8558ffff ff160000 00488d4d e0488d55  .X.......H.M.H.U
 400dd0 d08b8540 ffffff89 c6bf1011 4000b800  ...@........@...
 400de0 000000e8 88f9ffff e9ae0000 00c78558  ...............X
 400df0 ffffff15 00000048 8d4de048 8d55d08b  .......H.M.H.U..
 400e00 8540ffff ff89c6bf 40114000 b8000000  .@......@.@.....
 400e10 00e85af9 ffffe980 000000c7 8558ffff  ..Z..........X..
 400e20 ff170000 00488d4d e0488d55 d08b8540  .....H.M.H.U...@
 400e30 ffffff89 c6bf7011 4000b800 000000e8  ......p.@.......
 400e40 2cf9ffff eb55c785 58ffffff 50000000  ,....U..X...P...
 400e50 488d4de0 488d55d0 8b8540ff ffff89c6  H.M.H.U...@.....
 400e60 bfa01140 00b80000 0000e801 f9ffffeb  ...@............
 400e70 2ac78558 ffffffbb 01000048 8d4de048  *..X.......H.M.H
 400e80 8d55d08b 8540ffff ff89c6bf d0114000  .U...@........@.
 400e90 b8000000 00e8d6f8 ffff9048 8d55c048  ...........H.U.H
 400ea0 8d45b048 89c6bffc 114000b8 00000000  .E.H.....@......
 400eb0 e8bbf8ff ffbf1812 4000e891 f8ffff8b  ........@.......
 400ec0 8558ffff ff488b75 f8644833 34252800  .X...H.u.dH34%(.
 400ed0 00007405 e887f8ff ffc9c355 4889e548  ..t........UH..H
 400ee0 83ec6048 897da889 75a48955 a064488b  ..`H.}..u..U.dH.
 400ef0 04252800 00004889 45f831c0 488b45a8  .%(...H.E.1.H.E.
 400f00 4883c036 be471240 004889c7 e8eff8ff  H..6.G.@.H......
 400f10 ff488945 b848837d b800741b 8b45a089  .H.E.H.}..t..E..
 400f20 c6bf4f12 4000b800 000000e8 40f8ffff  ..O.@.......@...
 400f30 b8010000 00eb05b8 00000000 488b4df8  ............H.M.
 400f40 6448330c 25280000 007405e8 10f8ffff  dH3.%(...t......
 400f50 c9c35548 89e54883 ec404889 7dc88975  ..UH..H..@H.}..u
 400f60 c48955c0 64488b04 25280000 00488945  ..U.dH..%(...H.E
 400f70 f831c0c7 45dc0000 0000488b 45c8488b  .1..E.....H.E.H.
 400f80 10488955 e08b5008 8955e80f b7400c66  .H.U..P..U...@.f
 400f90 8945ec0f b745ec66 3d080675 24c745dc  .E...E.f=..u$.E.
 400fa0 01000000 0fb745ec 0fb7c08b 55c089c6  ......E.....U...
 400fb0 bf651240 00b80000 0000e8b1 f7ffffeb  .e.@............
 400fc0 2c0fb745 ec663d80 357522c7 45dc0200  ,..E.f=.5u".E...
 400fd0 00000fb7 45ec0fb7 c08b55c0 89c6bf7d  ....E.....U....}
 400fe0 124000b8 00000000 e883f7ff ff8b45dc  .@............E.
 400ff0 83f80174 0783f802 7409eb0e b8010000  ...t....t.......
 401000 00eb0cb8 02000000 eb05b800 00000048  ...............H
 401010 8b4df864 48330c25 28000000 7405e83d  .M.dH3.%(...t..=
 401020 f7ffffc9 c3662e0f 1f840000 00000090  .....f..........
 401030 41574156 4189ff41 5541544c 8d25be0d  AWAVA..AUATL.%..
 401040 20005548 8d2dbe0d 20005349 89f64989   .UH.-.. .SI..I.
 401050 d54c29e5 4883ec08 48c1fd03 e8b7f6ff  .L).H...H.......
 401060 ff4885ed 742031db 0f1f8400 00000000  .H..t 1.........
 401070 4c89ea4c 89f64489 ff41ff14 dc4883c3  L..L..D..A...H..
 401080 014839eb 75ea4883 c4085b5d 415c415d  .H9.u.H...[]A\A]
 401090 415e415f c390662e 0f1f8400 00000000  A^A_..f.........
 4010a0 f3c3                                 ..              
Contents of section .fini:
 4010a4 4883ec08 4883c408 c3                 H...H....       
Contents of section .rodata:
 4010b0 01000200 00000000 4572726f 7220666f  ........Error fo
 4010c0 72206669 6c652070 6174680a 00000000  r file path.....
 4010d0 4572726f 7220666f 72207063 61705f6f  Error for pcap_o
 4010e0 70656e5f 6f66666c 696e6520 25733a25  pen_offline %s:%
 4010f0 730a0063 6f756e74 3a25640a 00000000  s..count:%d.....
 401100 25303278 00253033 642e0025 30336400  %02x.%03d..%03d.
 401110 69742069 73205353 48092063 6f756e74  it is SSH. count
 401120 3a25640a 7372632d 69703a25 73092064  :%d.src-ip:%s. d
 401130 73742d69 703a2573 0a000000 00000000  st-ip:%s........
 401140 69742069 73204650 54092063 6f756e74  it is FPT. count
 401150 3a25640a 7372632d 69703a25 73092064  :%d.src-ip:%s. d
 401160 73742d69 703a2573 0a000000 00000000  st-ip:%s........
 401170 69742069 73205465 6c6e6574 0920636f  it is Telnet. co
 401180 756e743a 25640a73 72632d69 703a2573  unt:%d.src-ip:%s
 401190 09206473 742d6970 3a25730a 00000000  . dst-ip:%s.....
 4011a0 69742069 73204854 54500920 636f756e  it is HTTP. coun
 4011b0 743a2564 0a737263 2d69703a 25730920  t:%d.src-ip:%s. 
 4011c0 6473742d 69703a25 730a0000 00000000  dst-ip:%s.......
 4011d0 69742069 73204854 54505309 20636f75  it is HTTPS. cou
 4011e0 6e743a25 640a7372 632d6970 3a257309  nt:%d.src-ip:%s.
 4011f0 20647374 2d69703a 25730a00 7372635f   dst-ip:%s..src_
 401200 6d61633a 25730920 6473745f 6d61633a  mac:%s. dst_mac:
 401210 25730a00 00000000 2d2d2d2d 2d2d2d2d  %s......--------
 401220 2d2d2d2d 2d2d2d2d 2d2d2d2d 2d2d2d2d  ----------------
 401230 2d2d2d2d 2d2d2d2d 2d2d2d2d 2d2d2d2d  ----------------
 401240 2d2d2d2d 2d2d0048 5454502f 312e0069  ------.HTTP/1..i
 401250 74206973 20485454 50092063 6f756e74  t is HTTP. count
 401260 3a25640a 00415250 20657468 65723a25  :%d..ARP ether:%
 401270 75092063 6f756e74 3a25640a 00524152  u. count:%d..RAR
 401280 50206574 6865723a 25750920 636f756e  P ether:%u. coun
 401290 743a2564 0a00                        t:%d..          
Contents of section .eh_frame_hdr:
 401298 011b033b 54000000 09000000 a8f4ffff  ...;T...........
 4012a8 a0000000 88f5ffff 70000000 7ef6ffff  ........p...~...
 4012b8 c8000000 04f7ffff e8000000 36f8ffff  ............6...
 4012c8 08010000 43fcffff 28010000 bafcffff  ....C...(.......
 4012d8 48010000 98fdffff 68010000 08feffff  H.......h.......
 4012e8 b0010000                             ....            
Contents of section .eh_frame:
 4012f0 14000000 00000000 017a5200 01781001  .........zR..x..
 401300 1b0c0708 90010710 14000000 1c000000  ................
 401310 10f5ffff 2a000000 00000000 00000000  ....*...........
 401320 14000000 00000000 017a5200 01781001  .........zR..x..
 401330 1b0c0708 90010000 24000000 1c000000  ........$.......
 401340 00f4ffff d0000000 000e1046 0e184a0f  ...........F..J.
 401350 0b770880 003f1a3b 2a332422 00000000  .w...?.;*3$"....
 401360 1c000000 44000000 aef5ffff 86000000  ....D...........
 401370 00410e10 8602430d 0602810c 07080000  .A....C.........
 401380 1c000000 64000000 14f6ffff 32010000  ....d.......2...
 401390 00410e10 8602430d 06032d01 0c070800  .A....C...-.....
 4013a0 1c000000 84000000 26f7ffff 0d040000  ........&.......
 4013b0 00410e10 8602430d 06030804 0c070800  .A....C.........
 4013c0 1c000000 a4000000 13fbffff 77000000  ............w...
 4013d0 00410e10 8602430d 0602720c 07080000  .A....C...r.....
 4013e0 1c000000 c4000000 6afbffff d3000000  ........j.......
 4013f0 00410e10 8602430d 0602ce0c 07080000  .A....C.........
 401400 44000000 e4000000 28fcffff 65000000  D.......(...e...
 401410 00420e10 8f02420e 188e0345 0e208d04  .B....B....E. ..
 401420 420e288c 05480e30 8606480e 3883074d  B.(..H.0..H.8..M
 401430 0e40720e 38410e30 410e2842 0e20420e  .@r.8A.0A.(B. B.
 401440 18420e10 420e0800 14000000 2c010000  .B..B.......,...
 401450 50fcffff 02000000 00000000 00000000  P...............
 401460 00000000                             ....            
Contents of section .init_array:
 601e00 f0084000 00000000                    ..@.....        
Contents of section .fini_array:
 601e08 d0084000 00000000                    ..@.....        
Contents of section .jcr:
 601e10 00000000 00000000                    ........        
Contents of section .dynamic:
 601e18 01000000 00000000 01000000 00000000  ................
 601e28 01000000 00000000 90000000 00000000  ................
 601e38 0c000000 00000000 18074000 00000000  ..........@.....
 601e48 0d000000 00000000 a4104000 00000000  ..........@.....
 601e58 19000000 00000000 001e6000 00000000  ..........`.....
 601e68 1b000000 00000000 08000000 00000000  ................
 601e78 1a000000 00000000 081e6000 00000000  ..........`.....
 601e88 1c000000 00000000 08000000 00000000  ................
 601e98 f5feff6f 00000000 98024000 00000000  ...o......@.....
 601ea8 05000000 00000000 70044000 00000000  ........p.@.....
 601eb8 06000000 00000000 c0024000 00000000  ..........@.....
 601ec8 0a000000 00000000 03010000 00000000  ................
 601ed8 0b000000 00000000 18000000 00000000  ................
 601ee8 15000000 00000000 00000000 00000000  ................
 601ef8 03000000 00000000 00206000 00000000  ......... `.....
 601f08 02000000 00000000 20010000 00000000  ........ .......
 601f18 14000000 00000000 07000000 00000000  ................
 601f28 17000000 00000000 f8054000 00000000  ..........@.....
 601f38 07000000 00000000 c8054000 00000000  ..........@.....
 601f48 08000000 00000000 30000000 00000000  ........0.......
 601f58 09000000 00000000 18000000 00000000  ................
 601f68 feffff6f 00000000 98054000 00000000  ...o......@.....
 601f78 ffffff6f 00000000 01000000 00000000  ...o............
 601f88 f0ffff6f 00000000 74054000 00000000  ...o....t.@.....
 601f98 00000000 00000000 00000000 00000000  ................
 601fa8 00000000 00000000 00000000 00000000  ................
 601fb8 00000000 00000000 00000000 00000000  ................
 601fc8 00000000 00000000 00000000 00000000  ................
 601fd8 00000000 00000000 00000000 00000000  ................
 601fe8 00000000 00000000 00000000 00000000  ................
Contents of section .got:
 601ff8 00000000 00000000                    ........        
Contents of section .got.plt:
 602000 181e6000 00000000 00000000 00000000  ..`.............
 602010 00000000 00000000 56074000 00000000  ........V.@.....
 602020 66074000 00000000 76074000 00000000  f.@.....v.@.....
 602030 86074000 00000000 96074000 00000000  ..@.......@.....
 602040 a6074000 00000000 b6074000 00000000  ..@.......@.....
 602050 c6074000 00000000 d6074000 00000000  ..@.......@.....
 602060 e6074000 00000000 f6074000 00000000  ..@.......@.....
 602070 06084000 00000000                    ..@.....        
Contents of section .data:
 602078 00000000 00000000 00000000 00000000  ................
Contents of section .comment:
 0000 4743433a 20285562 756e7475 20352e34  GCC: (Ubuntu 5.4
 0010 2e302d36 7562756e 7475317e 31362e30  .0-6ubuntu1~16.0
 0020 342e3130 2920352e 342e3020 32303136  4.10) 5.4.0 2016
 0030 30363039 00                          0609.           
Contents of section .debug_aranges:
 0000 2c000000 02000000 00000800 00000000  ,...............
 0010 16094000 00000000 b8010000 00000000  ..@.............
 0020 00000000 00000000 00000000 00000000  ................
 0030 2c000000 02006005 00000800 00000000  ,.....`.........
 0040 ce0a4000 00000000 57050000 00000000  ..@.....W.......
 0050 00000000 00000000 00000000 00000000  ................
Contents of section .debug_info:
 0000 5c050000 04000000 00000801 ed010000  \...............
 0010 0ca20100 008c0200 00160940 00000000  ...........@....
 0020 00b80100 00000000 00000000 00023e00  ..............>.
 0030 000002d8 38000000 03080736 01000002  ....8......6....
 0040 bd000000 031e4a00 00000301 08fd0000  ......J.........
 0050 00030207 6a020000 02e50100 00032063  ....j......... c
 0060 00000003 04073b01 00000301 06ff0000  ......;.........
 0070 00030205 34000000 04040569 6e740003  ....4......int..
 0080 0805b400 00000262 02000003 837f0000  .......b........
 0090 00025d01 00000384 7f000000 03080745  ..]............E
 00a0 00000002 59020000 038b7f00 0000020f  ....Y...........
 00b0 03000003 8d7f0000 00050806 08c10000  ................
 00c0 00030106 06010000 07f40000 00d804f1  ................
 00d0 45020000 08290300 0004f278 00000000  E....).....x....
 00e0 087f0100 0004f7bb 00000008 087a0000  .............z..
 00f0 0004f8bb 00000010 08d30200 0004f9bb  ................
 0100 00000018 08670100 0004fabb 00000020  .....g......... 
 0110 083d0200 0004fbbb 00000028 084b0200  .=.........(.K..
 0120 0004fcbb 00000030 08640000 0004fdbb  .......0.d......
 0130 00000038 08910100 0004febb 00000040  ...8...........@
 0140 09f00200 00040001 bb000000 4809b502  ............H...
 0150 00000401 01bb0000 00500927 00000004  .........P.'....
 0160 0201bb00 00005809 71000000 0404017d  ......X.q......}
 0170 02000060 097d0200 00040601 83020000  ...`.}..........
 0180 68090703 00000408 01780000 007009c5  h........x...p..
 0190 02000004 0c017800 00007409 00000000  ......x...t.....
 01a0 040e0186 00000078 09cc0000 00041201  .......x........
 01b0 51000000 8009e102 00000413 016a0000  Q............j..
 01c0 00820953 01000004 14018902 00008309  ...S............
 01d0 c6000000 04180199 02000088 09040000  ................
 01e0 00042101 91000000 9009ae01 00000429  ..!............)
 01f0 01b90000 009809b5 01000004 2a01b900  ............*...
 0200 0000a009 0b010000 042b01b9 000000a8  .........+......
 0210 09190100 00042c01 b9000000 b009cb01  ......,.........
 0220 0000042e 012d0000 00b809cd 02000004  .....-..........
 0230 2f017800 0000c009 76010000 0431019f  /.x.....v....1..
 0240 020000c4 000a3703 00000496 07480100  ......7......H..
 0250 0018049c 7d020000 08a80100 00049d7d  ....}..........}
 0260 02000000 08ee0000 00049e83 02000008  ................
 0270 08dd0000 0004a278 00000010 0006084c  .......x.......L
 0280 02000006 08c80000 000bc100 00009902  ................
 0290 00000c9c 00000000 00060845 0200000b  ...........E....
 02a0 c1000000 af020000 0c9c0000 00130003  ................
 02b0 0805af00 000002bf 00000005 213f0000  ............!?..
 02c0 0002e701 00000523 58000000 07840200  .......#X.......
 02d0 0010061e f1020000 08200000 000620a3  ......... .... .
 02e0 00000000 08ad0200 000621ae 00000008  ..........!.....
 02f0 00030807 31010000 07870000 00080737  ....1..........7
 0300 1d030000 08bc0100 00073978 00000000  ..........9x....
 0310 08900000 00073a78 00000004 000608f8  ......:x........
 0320 0200000d 1d030000 02250100 000857c1  .........%....W.
 0330 02000002 30030000 094f3e03 00000e9d  ....0....O>.....
 0340 01000007 14000000 1809a073 0300000f  ...........s....
 0350 74730009 a1cc0200 000008a8 00000009  ts..............
 0360 a2280300 00100f6c 656e0009 a3280300  .(.....len...(..
 0370 00140006 08b60200 00075500 0000140a  ..........U.....
 0380 23220400 00100c00 00000a25 63000000  #".........%c...
 0390 04041c00 116c656e 000a2663 00000004  .....len..&c....
 03a0 0418000f 746f7300 0a274a00 00000108  ....tos..'J.....
 03b0 db010000 0a285100 00000208 2a030000  .....(Q.....*...
 03c0 0a295100 00000410 fe020000 0a2a6300  .)Q..........*c.
 03d0 00000403 0d041005 0000000a 2b630000  ............+c..
 03e0 00040d00 0408d800 00000a2c 4a000000  ...........,J...
 03f0 0808d201 00000a2d 4a000000 0908a200  .......-J.......
 0400 00000a2e 51000000 0a089b00 00000a2f  ....Q........../
 0410 22040000 0c081201 00000a30 22040000  "..........0"...
 0420 10000b4a 00000032 0400000c 9c000000  ...J...2........
 0430 03001249 50000a31 79030000 131d0300  ...IP..1y.......
 0440 00010616 09400000 00000086 00000000  .....@..........
 0450 00000001 9ca20400 00148c01 00000106  ................
 0460 73030000 0391b87f 15706b72 000106a2  s........pkr....
 0470 04000003 91b07f14 5f000000 01067303  ........_.....s.
 0480 00000391 a87f1672 65740001 09780000  .......ret...x..
 0490 0002914c 16697000 010a3204 00000291  ...L.ip...2.....
 04a0 50000608 43030000 175a0000 00012278  P...C....Z...."x
 04b0 0000009c 09400000 00000032 01000000  .....@.....2....
 04c0 00000001 9c230500 00142001 00000122  .....#.... ...."
 04d0 78000000 0391cc7d 14e20000 00012223  x......}......"#
 04e0 05000003 91c07d16 72657400 01257800  ......}.ret..%x.
 04f0 00000391 d47d1865 72720001 4eb20a40  .....}.err..N..@
 0500 00000000 0019e700 00000140 29050000  ...........@)...
 0510 0391e07d 16667000 01413905 00000391  ...}.fp..A9.....
 0520 d87d0006 08bb0000 000bc100 00003905  .}............9.
 0530 00000c9c 000000ff 00060833 03000019  ...........3....
 0540 a7020000 01047800 00000903 ac206000  ......x...... `.
 0550 00000000 1a4e0000 000baa83 02000000  .....N..........
 0560 48040000 04007701 00000801 ed010000  H.....w.........
 0570 0c420300 008c0200 00ce0a40 00000000  .B.........@....
 0580 00570500 00000000 00530100 00020807  .W.......S......
 0590 36010000 020108fd 00000002 02076a02  6.............j.
 05a0 00000204 073b0100 00020106 ff000000  .....;..........
 05b0 02020534 00000003 0405696e 74000208  ...4......int...
 05c0 05b40000 00020807 45000000 04087200  ........E.....r.
 05d0 00000201 06060100 0004087f 00000005  ................
 05e0 72000000 020805af 00000002 08073101  r.............1.
 05f0 00000687 00000008 0237b700 000007bc  .........7......
 0600 01000002 39570000 00000790 00000002  ....9W..........
 0610 3a570000 00040004 08920000 0008b700  :W..............
 0620 00000654 0300000e 031bf300 00000973  ...T...........s
 0630 72630003 1df30000 00000964 73740003  rc.........dst..
 0640 1ef30000 000607d2 01000003 1f3b0000  .............;..
 0650 000c000a 34000000 03010000 0b650000  ....4........e..
 0660 0005000c 90030000 0320c200 00000655  ......... .....U
 0670 00000014 0323b701 00000d0c 00000003  .....#..........
 0680 25420000 0004041c 000e6c65 6e000326  %B........len..&
 0690 42000000 04041800 09746f73 00032734  B........tos..'4
 06a0 00000001 07db0100 0003283b 00000002  ..........(;....
 06b0 072a0300 0003293b 00000004 0dfe0200  .*....);........
 06c0 00032a42 00000004 030d040d 05000000  ..*B............
 06d0 032b4200 0000040d 000407d8 00000003  .+B.............
 06e0 2c340000 000807d2 01000003 2d340000  ,4..........-4..
 06f0 000907a2 00000003 2e3b0000 000a079b  .........;......
 0700 00000003 2fb70100 000c0712 01000003  ..../...........
 0710 30b70100 0010000a 34000000 c7010000  0.......4.......
 0720 0b650000 0003000f 49500003 310e0100  .e......IP..1...
 0730 0006b903 00001403 3d530200 00079903  ........=S......
 0740 0000033f 3b000000 0007b003 00000340  ...?;..........@
 0750 3b000000 02074d03 00000341 42000000  ;.....M....AB...
 0760 04074903 00000342 42000000 080e6c65  ..I....BB.....le
 0770 6e000343 42000000 04041c0c 0d5f0300  n..CB........_..
 0780 00034442 00000004 06160c0d 02030000  ..DB............
 0790 03454200 00000406 100c07a7 02000003  .EB.............
 07a0 463b0000 000e0970 72740003 473b0000  F;.....prt..G;..
 07b0 0010000f 54435000 0348d101 000010a9  ....TCP..H......
 07c0 03000001 5d570000 00ce0a40 00000000  ....]W.....@....
 07d0 000d0400 00000000 00019c3e 03000011  ...........>....
 07e0 5f000000 015d7900 00000391 b87e126c  _....]y......~.l
 07f0 656e0001 5d570000 000391b4 7e126e75  en..]W......~.nu
 0800 6d00015d 57000000 0391b07e 136f0300  m..]W......~.o..
 0810 00015f03 01000003 91f07e14 69700001  .._.......~.ip..
 0820 60c70100 00039180 7f147463 70000161  `.........tcp..a
 0830 53020000 0391d07e 14690001 62570000  S......~.i..bW..
 0840 000391c4 7e130203 00000163 57000000  ....~......cW...
 0850 0391c87e 14726574 00016457 00000003  ...~.ret..dW....
 0860 91cc7e13 89030000 01653e03 00000291  ..~......e>.....
 0870 40131201 00000166 3e030000 02915013  @......f>.....P.
 0880 75030000 01674e03 00000391 a07f1367  u....gN........g
 0890 03000001 684e0300 000391b0 7f000a72  ....hN.........r
 08a0 0000004e 0300000b 65000000 0f000a72  ...N....e......r
 08b0 0000005e 0300000b 65000000 0c0010a2  ...^....e.......
 08c0 03000001 a1570000 00db0e40 00000000  .....W.....@....
 08d0 00770000 00000000 00019ce4 03000011  .w..............
 08e0 5f000000 01a17900 00000391 987f126c  _.....y........l
 08f0 656e0001 a1570000 00039194 7f126e75  en...W........nu
 0900 6d0001a1 57000000 0391907f 136f0300  m...W........o..
 0910 0001a303 01000002 91501469 700001a4  .........P.ip...
 0920 c7010000 02915014 74637000 01a55302  ......P.tcp...S.
 0930 00000391 b07f1470 0001a76c 00000003  .......p...l....
 0940 91a87f00 157d0300 0001b357 00000052  .....}.....W...R
 0950 0f400000 000000d3 00000000 00000001  .@..............
 0960 9c115f00 000001b3 79000000 0391b87f  .._.....y.......
 0970 126c656e 0001b357 00000003 91b47f12  .len...W........
 0980 6e756d00 01b35700 00000391 b07f136f  num...W........o
 0990 03000001 b5030100 00029150 13020300  ...........P....
 09a0 0001b657 00000002 914c0000           ...W.....L..    
Contents of section .debug_abbrev:
 0000 01110125 0e130b03 0e1b0e11 01120710  ...%............
 0010 17000002 1600030e 3a0b3b0b 49130000  ........:.;.I...
 0020 0324000b 0b3e0b03 0e000004 24000b0b  .$...>......$...
 0030 3e0b0308 0000050f 000b0b00 00060f00  >...............
 0040 0b0b4913 00000713 01030e0b 0b3a0b3b  ..I..........:.;
 0050 0b011300 00080d00 030e3a0b 3b0b4913  ..........:.;.I.
 0060 380b0000 090d0003 0e3a0b3b 05491338  8........:.;.I.8
 0070 0b00000a 1600030e 3a0b3b0b 00000b01  ........:.;.....
 0080 01491301 1300000c 21004913 2f0b0000  .I......!.I./...
 0090 0d370049 1300000e 1300030e 3c190000  .7.I........<...
 00a0 0f0d0003 083a0b3b 0b491338 0b000010  .....:.;.I.8....
 00b0 0d00030e 3a0b3b0b 49130b0b 0d0b0c0b  ....:.;.I.......
 00c0 380b0000 110d0003 083a0b3b 0b49130b  8........:.;.I..
 00d0 0b0d0b0c 0b380b00 00121600 03083a0b  .....8........:.
 00e0 3b0b4913 0000132e 013f1903 0e3a0b3b  ;.I......?...:.;
 00f0 0b271911 01120740 18964219 01130000  .'.....@..B.....
 0100 14050003 0e3a0b3b 0b491302 18000015  .....:.;.I......
 0110 05000308 3a0b3b0b 49130218 00001634  ....:.;.I......4
 0120 0003083a 0b3b0b49 13021800 00172e01  ...:.;.I........
 0130 3f19030e 3a0b3b0b 27194913 11011207  ?...:.;.'.I.....
 0140 40189642 19011300 00180a00 03083a0b  @..B..........:.
 0150 3b0b1101 00001934 00030e3a 0b3b0b49  ;......4...:.;.I
 0160 13021800 001a3400 030e3a0b 3b0b4913  ......4...:.;.I.
 0170 3f193c19 00000001 1101250e 130b030e  ?.<.......%.....
 0180 1b0e1101 12071017 00000224 000b0b3e  ...........$...>
 0190 0b030e00 00032400 0b0b3e0b 03080000  ......$...>.....
 01a0 040f000b 0b491300 00052600 49130000  .....I....&.I...
 01b0 06130103 0e0b0b3a 0b3b0b01 13000007  .......:.;......
 01c0 0d00030e 3a0b3b0b 4913380b 00000837  ....:.;.I.8....7
 01d0 00491300 00090d00 03083a0b 3b0b4913  .I........:.;.I.
 01e0 380b0000 0a010149 13011300 000b2100  8......I......!.
 01f0 49132f0b 00000c16 00030e3a 0b3b0b49  I./........:.;.I
 0200 1300000d 0d00030e 3a0b3b0b 49130b0b  ........:.;.I...
 0210 0d0b0c0b 380b0000 0e0d0003 083a0b3b  ....8........:.;
 0220 0b49130b 0b0d0b0c 0b380b00 000f1600  .I.......8......
 0230 03083a0b 3b0b4913 0000102e 013f1903  ..:.;.I......?..
 0240 0e3a0b3b 0b271949 13110112 07401896  .:.;.'.I.....@..
 0250 42190113 00001105 00030e3a 0b3b0b49  B..........:.;.I
 0260 13021800 00120500 03083a0b 3b0b4913  ..........:.;.I.
 0270 02180000 13340003 0e3a0b3b 0b491302  .....4...:.;.I..
 0280 18000014 34000308 3a0b3b0b 49130218  ....4...:.;.I...
 0290 0000152e 013f1903 0e3a0b3b 0b271949  .....?...:.;.'.I
 02a0 13110112 07401896 42190000 00        .....@..B....   
Contents of section .debug_line:
 0000 4f010000 02001101 00000101 fb0e0d00  O...............
 0010 01010101 00000001 0000012f 7573722f  .........../usr/
 0020 6c69622f 6763632f 7838365f 36342d6c  lib/gcc/x86_64-l
 0030 696e7578 2d676e75 2f352f69 6e636c75  inux-gnu/5/inclu
 0040 6465002f 7573722f 696e636c 7564652f  de./usr/include/
 0050 7838365f 36342d6c 696e7578 2d676e75  x86_64-linux-gnu
 0060 2f626974 73002f75 73722f69 6e636c75  /bits./usr/inclu
 0070 6465002f 7573722f 696e636c 7564652f  de./usr/include/
 0080 7838365f 36342d6c 696e7578 2d676e75  x86_64-linux-gnu
 0090 2f737973 002f7573 722f696e 636c7564  /sys./usr/includ
 00a0 652f7063 61700000 6470692e 63000000  e/pcap..dpi.c...
 00b0 00737464 6465662e 68000100 00747970  .stddef.h....typ
 00c0 65732e68 00020000 6c696269 6f2e6800  es.h....libio.h.
 00d0 03000074 79706573 2e680004 00007469  ...types.h....ti
 00e0 6d652e68 00020000 74696d65 2e680004  me.h....time.h..
 00f0 00006270 662e6800 05000070 6361702e  ..bpf.h....pcap.
 0100 68000500 00706f72 742e6800 00000073  h....port.h....s
 0110 7464696f 2e680003 00000000 09021609  tdio.h..........
 0120 40000000 00001808 3ce5e508 e6031408  @.......<.......
 0130 ba21085b 0874e69f 9208c99f 03175802  .!.[.t........X.
 0140 2713a002 2e139f31 08ca0868 e6670216  '......1...h.g..
 0150 00010102 01000002 00530000 000101fb  .........S......
 0160 0e0d0001 01010100 00000100 00012f75  ............../u
 0170 73722f69 6e636c75 64652f78 38365f36  sr/include/x86_6
 0180 342d6c69 6e75782d 676e752f 73797300  4-linux-gnu/sys.
 0190 00706f72 742e6300 00000074 696d652e  .port.c....time.
 01a0 68000100 00706f72 742e6800 00000000  h....port.h.....
 01b0 000902ce 0a400000 00000003 dd000108  .....@..........
 01c0 c8e89f9f 9ff3f308 2f083008 ad08e502  ......../.0.....
 01d0 29150002 0403e600 02040302 3b130002  )...........;...
 01e0 0403023f 0f000204 01067406 cf0892e6  ...?......t.....
 01f0 02371302 37139202 37130002 04020379  .7..7...7......y
 0200 02370100 02040106 7406030c c8023c15  .7......t.....<.
 0210 9f08d75a 9f08d75a 9f08d730 9f08d730  ...Z...Z...0...0
 0220 9f08d723 08919f67 085b0820 e9088376  ...#...g.[. ...v
 0230 083d7800 0204015a 06e40677 0820e675  .=x....Z...w. .u
 0240 0884a075 08bca075 08a1e776 76000204  ...u...u...vv...
 0250 015a06e4 02070001 01                 .Z.......       
Contents of section .debug_str:
 0000 5f6f6c64 5f6f6666 73657400 76657273  _old_offset.vers
 0010 696f6e00 70636170 5f706b74 68647200  ion.pcap_pkthdr.
 0020 74765f73 6563005f 494f5f73 6176655f  tv_sec._IO_save_
 0030 656e6400 73686f72 7420696e 74007369  end.short int.si
 0040 7a655f74 0073697a 65747970 65007374  ze_t.sizetype.st
 0050 64657272 0049505f 74006d61 696e0064  derr.IP_t.main.d
 0060 61746100 5f494f5f 6275665f 62617365  ata._IO_buf_base
 0070 005f6d61 726b6572 73005f49 4f5f7265  ._markers._IO_re
 0080 61645f65 6e640074 696d657a 6f6e6500  ad_end.timezone.
 0090 747a5f64 73747469 6d650073 63725f69  tz_dsttime.scr_i
 00a0 70006368 65636b00 6361706c 656e006c  p.check.caplen.l
 00b0 6f6e6720 6c6f6e67 20696e74 005f5f75  ong long int.__u
 00c0 5f636861 72005f6c 6f636b00 5f637572  _char._lock._cur
 00d0 5f636f6c 756d6e00 6c697665 005f706f  _column.live._po
 00e0 73006172 67760065 72726275 66005f73  s.argv.errbuf._s
 00f0 62756600 5f494f5f 46494c45 00756e73  buf._IO_FILE.uns
 0100 69676e65 64206368 6172005f 5f706164  igned char.__pad
 0110 33006473 745f6970 005f5f70 61643400  3.dst_ip.__pad4.
 0120 61726763 00627066 5f755f69 6e743332  argc.bpf_u_int32
 0130 006c6f6e 67206c6f 6e672075 6e736967  .long long unsig
 0140 6e656420 696e7400 5f494f5f 6d61726b  ned int._IO_mark
 0150 6572005f 73686f72 74627566 005f5f6f  er._shortbuf.__o
 0160 66663634 5f74005f 494f5f77 72697465  ff64_t._IO_write
 0170 5f626173 65005f75 6e757365 6432005f  _base._unused2._
 0180 494f5f72 6561645f 70747200 75736572  IO_read_ptr.user
 0190 005f494f 5f627566 5f656e64 00706361  ._IO_buf_end.pca
 01a0 70006470 692e6300 5f6e6578 74005f5f  p.dpi.c._next.__
 01b0 70616431 005f5f70 61643200 747a5f6d  pad1.__pad2.tz_m
 01c0 696e7574 65737765 7374005f 5f706164  inuteswest.__pad
 01d0 35007072 6f746f63 6f6c0063 6f756e74  5.protocol.count
 01e0 5f6c656e 005f5f75 5f696e74 00474e55  _len.__u_int.GNU
 01f0 20433131 20352e34 2e302032 30313630   C11 5.4.0 20160
 0200 36303920 2d6d7475 6e653d67 656e6572  609 -mtune=gener
 0210 6963202d 6d617263 683d7838 362d3634  ic -march=x86-64
 0220 202d6720 2d667374 61636b2d 70726f74   -g -fstack-prot
 0230 6563746f 722d7374 726f6e67 005f494f  ector-strong._IO
 0240 5f777269 74655f70 7472005f 494f5f77  _write_ptr._IO_w
 0250 72697465 5f656e64 005f5f74 696d655f  rite_end.__time_
 0260 74005f5f 6f66665f 74007368 6f727420  t.__off_t.short 
 0270 756e7369 676e6564 20696e74 005f6368  unsigned int._ch
 0280 61696e00 74696d65 76616c00 2f686f6d  ain.timeval./hom
 0290 652f6974 63617374 2f697465 6d342f64  e/itcast/item4/d
 02a0 70692e67 69740063 6f756e74 0074765f  pi.git.count.tv_
 02b0 75736563 005f494f 5f626163 6b75705f  usec._IO_backup_
 02c0 62617365 005f666c 61677332 005f6d6f  base._flags2._mo
 02d0 6465005f 494f5f72 6561645f 62617365  de._IO_read_base
 02e0 005f7674 61626c65 5f6f6666 73657400  ._vtable_offset.
 02f0 5f494f5f 73617665 5f626173 65006d69  _IO_save_base.mi
 0300 6e5f666c 6167005f 66696c65 6e6f005f  n_flag._fileno._
 0310 5f737573 65636f6e 64735f74 006d795f  _suseconds_t.my_
 0320 63616c6c 6261636b 005f666c 61677300  callback._flags.
 0330 70636170 5f74005f 494f5f6c 6f636b5f  pcap_t._IO_lock_
 0340 7400706f 72742e63 0061636b 5f6e756d  t.port.c.ack_num
 0350 62657200 65746865 726e6574 5f740072  ber.ethernet_t.r
 0360 65736572 76650064 73745f6d 61630065  eserve.dst_mac.e
 0370 74686572 00737263 5f6d6163 00697341  ther.src_mac.isA
 0380 52506f72 52415250 00737263 5f697000  RPorRARP.src_ip.
 0390 45746865 726e6574 00737263 5f706f72  Ethernet.src_por
 03a0 74006973 48545450 00697350 6f727400  t.isHTTP.isPort.
 03b0 6473745f 706f7274 00746370 5f7400    dst_port.tcp_t. 

Disassembly of section .init:

0000000000400718 <_init>:
  400718:	48 83 ec 08          	sub    $0x8,%rsp
  40071c:	48 8b 05 d5 18 20 00 	mov    0x2018d5(%rip),%rax        # 601ff8 <_DYNAMIC+0x1e0>
  400723:	48 85 c0             	test   %rax,%rax
  400726:	74 05                	je     40072d <_init+0x15>
  400728:	e8 e3 00 00 00       	callq  400810 <strstr@plt+0x10>
  40072d:	48 83 c4 08          	add    $0x8,%rsp
  400731:	c3                   	retq   

Disassembly of section .plt:

0000000000400740 <puts@plt-0x10>:
  400740:	ff 35 c2 18 20 00    	pushq  0x2018c2(%rip)        # 602008 <_GLOBAL_OFFSET_TABLE_+0x8>
  400746:	ff 25 c4 18 20 00    	jmpq   *0x2018c4(%rip)        # 602010 <_GLOBAL_OFFSET_TABLE_+0x10>
  40074c:	0f 1f 40 00          	nopl   0x0(%rax)

0000000000400750 <puts@plt>:
  400750:	ff 25 c2 18 20 00    	jmpq   *0x2018c2(%rip)        # 602018 <_GLOBAL_OFFSET_TABLE_+0x18>
  400756:	68 00 00 00 00       	pushq  $0x0
  40075b:	e9 e0 ff ff ff       	jmpq   400740 <_init+0x28>

0000000000400760 <__stack_chk_fail@plt>:
  400760:	ff 25 ba 18 20 00    	jmpq   *0x2018ba(%rip)        # 602020 <_GLOBAL_OFFSET_TABLE_+0x20>
  400766:	68 01 00 00 00       	pushq  $0x1
  40076b:	e9 d0 ff ff ff       	jmpq   400740 <_init+0x28>

0000000000400770 <printf@plt>:
  400770:	ff 25 b2 18 20 00    	jmpq   *0x2018b2(%rip)        # 602028 <_GLOBAL_OFFSET_TABLE_+0x28>
  400776:	68 02 00 00 00       	pushq  $0x2
  40077b:	e9 c0 ff ff ff       	jmpq   400740 <_init+0x28>

0000000000400780 <pcap_close@plt>:
  400780:	ff 25 aa 18 20 00    	jmpq   *0x2018aa(%rip)        # 602030 <_GLOBAL_OFFSET_TABLE_+0x30>
  400786:	68 03 00 00 00       	pushq  $0x3
  40078b:	e9 b0 ff ff ff       	jmpq   400740 <_init+0x28>

0000000000400790 <__libc_start_main@plt>:
  400790:	ff 25 a2 18 20 00    	jmpq   *0x2018a2(%rip)        # 602038 <_GLOBAL_OFFSET_TABLE_+0x38>
  400796:	68 04 00 00 00       	pushq  $0x4
  40079b:	e9 a0 ff ff ff       	jmpq   400740 <_init+0x28>

00000000004007a0 <pcap_open_offline@plt>:
  4007a0:	ff 25 9a 18 20 00    	jmpq   *0x20189a(%rip)        # 602040 <_GLOBAL_OFFSET_TABLE_+0x40>
  4007a6:	68 05 00 00 00       	pushq  $0x5
  4007ab:	e9 90 ff ff ff       	jmpq   400740 <_init+0x28>

00000000004007b0 <fprintf@plt>:
  4007b0:	ff 25 92 18 20 00    	jmpq   *0x201892(%rip)        # 602048 <_GLOBAL_OFFSET_TABLE_+0x48>
  4007b6:	68 06 00 00 00       	pushq  $0x6
  4007bb:	e9 80 ff ff ff       	jmpq   400740 <_init+0x28>

00000000004007c0 <pcap_loop@plt>:
  4007c0:	ff 25 8a 18 20 00    	jmpq   *0x20188a(%rip)        # 602050 <_GLOBAL_OFFSET_TABLE_+0x50>
  4007c6:	68 07 00 00 00       	pushq  $0x7
  4007cb:	e9 70 ff ff ff       	jmpq   400740 <_init+0x28>

00000000004007d0 <ntohs@plt>:
  4007d0:	ff 25 82 18 20 00    	jmpq   *0x201882(%rip)        # 602058 <_GLOBAL_OFFSET_TABLE_+0x58>
  4007d6:	68 08 00 00 00       	pushq  $0x8
  4007db:	e9 60 ff ff ff       	jmpq   400740 <_init+0x28>

00000000004007e0 <sprintf@plt>:
  4007e0:	ff 25 7a 18 20 00    	jmpq   *0x20187a(%rip)        # 602060 <_GLOBAL_OFFSET_TABLE_+0x60>
  4007e6:	68 09 00 00 00       	pushq  $0x9
  4007eb:	e9 50 ff ff ff       	jmpq   400740 <_init+0x28>

00000000004007f0 <fwrite@plt>:
  4007f0:	ff 25 72 18 20 00    	jmpq   *0x201872(%rip)        # 602068 <_GLOBAL_OFFSET_TABLE_+0x68>
  4007f6:	68 0a 00 00 00       	pushq  $0xa
  4007fb:	e9 40 ff ff ff       	jmpq   400740 <_init+0x28>

0000000000400800 <strstr@plt>:
  400800:	ff 25 6a 18 20 00    	jmpq   *0x20186a(%rip)        # 602070 <_GLOBAL_OFFSET_TABLE_+0x70>
  400806:	68 0b 00 00 00       	pushq  $0xb
  40080b:	e9 30 ff ff ff       	jmpq   400740 <_init+0x28>

Disassembly of section .plt.got:

0000000000400810 <.plt.got>:
  400810:	ff 25 e2 17 20 00    	jmpq   *0x2017e2(%rip)        # 601ff8 <_DYNAMIC+0x1e0>
  400816:	66 90                	xchg   %ax,%ax

Disassembly of section .text:

0000000000400820 <_start>:
  400820:	31 ed                	xor    %ebp,%ebp
  400822:	49 89 d1             	mov    %rdx,%r9
  400825:	5e                   	pop    %rsi
  400826:	48 89 e2             	mov    %rsp,%rdx
  400829:	48 83 e4 f0          	and    $0xfffffffffffffff0,%rsp
  40082d:	50                   	push   %rax
  40082e:	54                   	push   %rsp
  40082f:	49 c7 c0 a0 10 40 00 	mov    $0x4010a0,%r8
  400836:	48 c7 c1 30 10 40 00 	mov    $0x401030,%rcx
  40083d:	48 c7 c7 9c 09 40 00 	mov    $0x40099c,%rdi
  400844:	e8 47 ff ff ff       	callq  400790 <__libc_start_main@plt>
  400849:	f4                   	hlt    
  40084a:	66 0f 1f 44 00 00    	nopw   0x0(%rax,%rax,1)

0000000000400850 <deregister_tm_clones>:
  400850:	b8 8f 20 60 00       	mov    $0x60208f,%eax
  400855:	55                   	push   %rbp
  400856:	48 2d 88 20 60 00    	sub    $0x602088,%rax
  40085c:	48 83 f8 0e          	cmp    $0xe,%rax
  400860:	48 89 e5             	mov    %rsp,%rbp
  400863:	76 1b                	jbe    400880 <deregister_tm_clones+0x30>
  400865:	b8 00 00 00 00       	mov    $0x0,%eax
  40086a:	48 85 c0             	test   %rax,%rax
  40086d:	74 11                	je     400880 <deregister_tm_clones+0x30>
  40086f:	5d                   	pop    %rbp
  400870:	bf 88 20 60 00       	mov    $0x602088,%edi
  400875:	ff e0                	jmpq   *%rax
  400877:	66 0f 1f 84 00 00 00 	nopw   0x0(%rax,%rax,1)
  40087e:	00 00 
  400880:	5d                   	pop    %rbp
  400881:	c3                   	retq   
  400882:	0f 1f 40 00          	nopl   0x0(%rax)
  400886:	66 2e 0f 1f 84 00 00 	nopw   %cs:0x0(%rax,%rax,1)
  40088d:	00 00 00 

0000000000400890 <register_tm_clones>:
  400890:	be 88 20 60 00       	mov    $0x602088,%esi
  400895:	55                   	push   %rbp
  400896:	48 81 ee 88 20 60 00 	sub    $0x602088,%rsi
  40089d:	48 c1 fe 03          	sar    $0x3,%rsi
  4008a1:	48 89 e5             	mov    %rsp,%rbp
  4008a4:	48 89 f0             	mov    %rsi,%rax
  4008a7:	48 c1 e8 3f          	shr    $0x3f,%rax
  4008ab:	48 01 c6             	add    %rax,%rsi
  4008ae:	48 d1 fe             	sar    %rsi
  4008b1:	74 15                	je     4008c8 <register_tm_clones+0x38>
  4008b3:	b8 00 00 00 00       	mov    $0x0,%eax
  4008b8:	48 85 c0             	test   %rax,%rax
  4008bb:	74 0b                	je     4008c8 <register_tm_clones+0x38>
  4008bd:	5d                   	pop    %rbp
  4008be:	bf 88 20 60 00       	mov    $0x602088,%edi
  4008c3:	ff e0                	jmpq   *%rax
  4008c5:	0f 1f 00             	nopl   (%rax)
  4008c8:	5d                   	pop    %rbp
  4008c9:	c3                   	retq   
  4008ca:	66 0f 1f 44 00 00    	nopw   0x0(%rax,%rax,1)

00000000004008d0 <__do_global_dtors_aux>:
  4008d0:	80 3d d1 17 20 00 00 	cmpb   $0x0,0x2017d1(%rip)        # 6020a8 <completed.7594>
  4008d7:	75 11                	jne    4008ea <__do_global_dtors_aux+0x1a>
  4008d9:	55                   	push   %rbp
  4008da:	48 89 e5             	mov    %rsp,%rbp
  4008dd:	e8 6e ff ff ff       	callq  400850 <deregister_tm_clones>
  4008e2:	5d                   	pop    %rbp
  4008e3:	c6 05 be 17 20 00 01 	movb   $0x1,0x2017be(%rip)        # 6020a8 <completed.7594>
  4008ea:	f3 c3                	repz retq 
  4008ec:	0f 1f 40 00          	nopl   0x0(%rax)

00000000004008f0 <frame_dummy>:
  4008f0:	bf 10 1e 60 00       	mov    $0x601e10,%edi
  4008f5:	48 83 3f 00          	cmpq   $0x0,(%rdi)
  4008f9:	75 05                	jne    400900 <frame_dummy+0x10>
  4008fb:	eb 93                	jmp    400890 <register_tm_clones>
  4008fd:	0f 1f 00             	nopl   (%rax)
  400900:	b8 00 00 00 00       	mov    $0x0,%eax
  400905:	48 85 c0             	test   %rax,%rax
  400908:	74 f1                	je     4008fb <frame_dummy+0xb>
  40090a:	55                   	push   %rbp
  40090b:	48 89 e5             	mov    %rsp,%rbp
  40090e:	ff d0                	callq  *%rax
  400910:	5d                   	pop    %rbp
  400911:	e9 7a ff ff ff       	jmpq   400890 <register_tm_clones>

0000000000400916 <my_callback>:
#include "port.h"

static int count=0;

void my_callback(u_char *user,struct pcap_pkthdr *pkr,u_char * data)
{
  400916:	55                   	push   %rbp
  400917:	48 89 e5             	mov    %rsp,%rbp
  40091a:	48 83 ec 50          	sub    $0x50,%rsp
  40091e:	48 89 7d c8          	mov    %rdi,-0x38(%rbp)
  400922:	48 89 75 c0          	mov    %rsi,-0x40(%rbp)
  400926:	48 89 55 b8          	mov    %rdx,-0x48(%rbp)
  40092a:	64 48 8b 04 25 28 00 	mov    %fs:0x28,%rax
  400931:	00 00 
  400933:	48 89 45 f8          	mov    %rax,-0x8(%rbp)
  400937:	31 c0                	xor    %eax,%eax
    count++;
  400939:	8b 05 6d 17 20 00    	mov    0x20176d(%rip),%eax        # 6020ac <count>
  40093f:	83 c0 01             	add    $0x1,%eax
  400942:	89 05 64 17 20 00    	mov    %eax,0x201764(%rip)        # 6020ac <count>
    int ret=isPort(data,pkr->caplen,count);
  400948:	8b 15 5e 17 20 00    	mov    0x20175e(%rip),%edx        # 6020ac <count>
  40094e:	48 8b 45 c0          	mov    -0x40(%rbp),%rax
  400952:	8b 40 10             	mov    0x10(%rax),%eax
  400955:	89 c1                	mov    %eax,%ecx
  400957:	48 8b 45 b8          	mov    -0x48(%rbp),%rax
  40095b:	89 ce                	mov    %ecx,%esi
  40095d:	48 89 c7             	mov    %rax,%rdi
  400960:	e8 69 01 00 00       	callq  400ace <isPort>
  400965:	89 45 dc             	mov    %eax,-0x24(%rbp)
    IP ip;
    memcpy(&ip,data+sizeof(Ethernet),sizeof(IP));
  400968:	48 8b 45 b8          	mov    -0x48(%rbp),%rax
  40096c:	48 83 c0 0e          	add    $0xe,%rax
  400970:	48 8b 10             	mov    (%rax),%rdx
  400973:	48 89 55 e0          	mov    %rdx,-0x20(%rbp)
  400977:	48 8b 50 08          	mov    0x8(%rax),%rdx
  40097b:	48 89 55 e8          	mov    %rdx,-0x18(%rbp)
  40097f:	8b 40 10             	mov    0x10(%rax),%eax
  400982:	89 45 f0             	mov    %eax,-0x10(%rbp)
        char buf[1024]={0};
        read(STDIN_FILENO,buf,sizeof(buf));
    }
    */

    return;
  400985:	90                   	nop
}
  400986:	48 8b 45 f8          	mov    -0x8(%rbp),%rax
  40098a:	64 48 33 04 25 28 00 	xor    %fs:0x28,%rax
  400991:	00 00 
  400993:	74 05                	je     40099a <my_callback+0x84>
  400995:	e8 c6 fd ff ff       	callq  400760 <__stack_chk_fail@plt>
  40099a:	c9                   	leaveq 
  40099b:	c3                   	retq   

000000000040099c <main>:

int main(int argc,char *argv[])
{
  40099c:	55                   	push   %rbp
  40099d:	48 89 e5             	mov    %rsp,%rbp
  4009a0:	48 81 ec 30 01 00 00 	sub    $0x130,%rsp
  4009a7:	89 bd dc fe ff ff    	mov    %edi,-0x124(%rbp)
  4009ad:	48 89 b5 d0 fe ff ff 	mov    %rsi,-0x130(%rbp)
  4009b4:	64 48 8b 04 25 28 00 	mov    %fs:0x28,%rax
  4009bb:	00 00 
  4009bd:	48 89 45 f8          	mov    %rax,-0x8(%rbp)
  4009c1:	31 c0                	xor    %eax,%eax

    int ret=0;
  4009c3:	c7 85 e4 fe ff ff 00 	movl   $0x0,-0x11c(%rbp)
  4009ca:	00 00 00 
    if (argc!=2)
  4009cd:	83 bd dc fe ff ff 02 	cmpl   $0x2,-0x124(%rbp)
  4009d4:	74 2d                	je     400a03 <main+0x67>
    {
        fprintf(stderr,"Error for file path\n");
  4009d6:	48 8b 05 c3 16 20 00 	mov    0x2016c3(%rip),%rax        # 6020a0 <stderr@@GLIBC_2.2.5>
  4009dd:	48 89 c1             	mov    %rax,%rcx
  4009e0:	ba 14 00 00 00       	mov    $0x14,%edx
  4009e5:	be 01 00 00 00       	mov    $0x1,%esi
  4009ea:	bf b8 10 40 00       	mov    $0x4010b8,%edi
  4009ef:	e8 fc fd ff ff       	callq  4007f0 <fwrite@plt>
        ret=1;
  4009f4:	c7 85 e4 fe ff ff 01 	movl   $0x1,-0x11c(%rbp)
  4009fb:	00 00 00 
        goto err;
  4009fe:	e9 af 00 00 00       	jmpq   400ab2 <main+0x116>
        goto err1;

    }
*/
    char errbuf[PCAP_ERRBUF_SIZE];
    pcap_t *fp=pcap_open_offline(argv[1],errbuf);
  400a03:	48 8b 85 d0 fe ff ff 	mov    -0x130(%rbp),%rax
  400a0a:	48 83 c0 08          	add    $0x8,%rax
  400a0e:	48 8b 00             	mov    (%rax),%rax
  400a11:	48 8d 95 f0 fe ff ff 	lea    -0x110(%rbp),%rdx
  400a18:	48 89 d6             	mov    %rdx,%rsi
  400a1b:	48 89 c7             	mov    %rax,%rdi
  400a1e:	e8 7d fd ff ff       	callq  4007a0 <pcap_open_offline@plt>
  400a23:	48 89 85 e8 fe ff ff 	mov    %rax,-0x118(%rbp)
    if (fp==NULL)
  400a2a:	48 83 bd e8 fe ff ff 	cmpq   $0x0,-0x118(%rbp)
  400a31:	00 
  400a32:	75 3a                	jne    400a6e <main+0xd2>
    {
        fprintf(stderr,"Error for pcap_open_offline %s:%s\n",argv[1],errbuf);
  400a34:	48 8b 85 d0 fe ff ff 	mov    -0x130(%rbp),%rax
  400a3b:	48 83 c0 08          	add    $0x8,%rax
  400a3f:	48 8b 10             	mov    (%rax),%rdx
  400a42:	48 8b 05 57 16 20 00 	mov    0x201657(%rip),%rax        # 6020a0 <stderr@@GLIBC_2.2.5>
  400a49:	48 8d 8d f0 fe ff ff 	lea    -0x110(%rbp),%rcx
  400a50:	be d0 10 40 00       	mov    $0x4010d0,%esi
  400a55:	48 89 c7             	mov    %rax,%rdi
  400a58:	b8 00 00 00 00       	mov    $0x0,%eax
  400a5d:	e8 4e fd ff ff       	callq  4007b0 <fprintf@plt>
        ret=2;
  400a62:	c7 85 e4 fe ff ff 02 	movl   $0x2,-0x11c(%rbp)
  400a69:	00 00 00 
        goto err;
  400a6c:	eb 44                	jmp    400ab2 <main+0x116>
    }

    pcap_loop(fp,-1,my_callback,NULL);
  400a6e:	48 8b 85 e8 fe ff ff 	mov    -0x118(%rbp),%rax
  400a75:	b9 00 00 00 00       	mov    $0x0,%ecx
  400a7a:	ba 16 09 40 00       	mov    $0x400916,%edx
  400a7f:	be ff ff ff ff       	mov    $0xffffffff,%esi
  400a84:	48 89 c7             	mov    %rax,%rdi
  400a87:	e8 34 fd ff ff       	callq  4007c0 <pcap_loop@plt>

    printf("count:%d\n",count);
  400a8c:	8b 05 1a 16 20 00    	mov    0x20161a(%rip),%eax        # 6020ac <count>
  400a92:	89 c6                	mov    %eax,%esi
  400a94:	bf f3 10 40 00       	mov    $0x4010f3,%edi
  400a99:	b8 00 00 00 00       	mov    $0x0,%eax
  400a9e:	e8 cd fc ff ff       	callq  400770 <printf@plt>

    pcap_close(fp);
  400aa3:	48 8b 85 e8 fe ff ff 	mov    -0x118(%rbp),%rax
  400aaa:	48 89 c7             	mov    %rax,%rdi
  400aad:	e8 ce fc ff ff       	callq  400780 <pcap_close@plt>
err:
    return ret;
  400ab2:	8b 85 e4 fe ff ff    	mov    -0x11c(%rbp),%eax
}
  400ab8:	48 8b 4d f8          	mov    -0x8(%rbp),%rcx
  400abc:	64 48 33 0c 25 28 00 	xor    %fs:0x28,%rcx
  400ac3:	00 00 
  400ac5:	74 05                	je     400acc <main+0x130>
  400ac7:	e8 94 fc ff ff       	callq  400760 <__stack_chk_fail@plt>
  400acc:	c9                   	leaveq 
  400acd:	c3                   	retq   

0000000000400ace <isPort>:


//static int (*func[1024])(const char *,int,int);

int isPort(const char *data,int len,int num)
{
  400ace:	55                   	push   %rbp
  400acf:	48 89 e5             	mov    %rsp,%rbp
  400ad2:	48 81 ec c0 00 00 00 	sub    $0xc0,%rsp
  400ad9:	48 89 bd 48 ff ff ff 	mov    %rdi,-0xb8(%rbp)
  400ae0:	89 b5 44 ff ff ff    	mov    %esi,-0xbc(%rbp)
  400ae6:	89 95 40 ff ff ff    	mov    %edx,-0xc0(%rbp)
  400aec:	64 48 8b 04 25 28 00 	mov    %fs:0x28,%rax
  400af3:	00 00 
  400af5:	48 89 45 f8          	mov    %rax,-0x8(%rbp)
  400af9:	31 c0                	xor    %eax,%eax
    Ethernet ether;
    IP ip;
    TCP tcp;
    int i=0;
  400afb:	c7 85 54 ff ff ff 00 	movl   $0x0,-0xac(%rbp)
  400b02:	00 00 00 
    int flag=0; 
  400b05:	c7 85 58 ff ff ff 00 	movl   $0x0,-0xa8(%rbp)
  400b0c:	00 00 00 
    int ret=0;
  400b0f:	c7 85 5c ff ff ff 00 	movl   $0x0,-0xa4(%rbp)
  400b16:	00 00 00 
    char src_ip[16]={0};
  400b19:	48 c7 45 d0 00 00 00 	movq   $0x0,-0x30(%rbp)
  400b20:	00 
  400b21:	48 c7 45 d8 00 00 00 	movq   $0x0,-0x28(%rbp)
  400b28:	00 
    char dst_ip[16]={0};
  400b29:	48 c7 45 e0 00 00 00 	movq   $0x0,-0x20(%rbp)
  400b30:	00 
  400b31:	48 c7 45 e8 00 00 00 	movq   $0x0,-0x18(%rbp)
  400b38:	00 
    char src_mac[13]={0};
  400b39:	48 c7 45 b0 00 00 00 	movq   $0x0,-0x50(%rbp)
  400b40:	00 
  400b41:	c7 45 b8 00 00 00 00 	movl   $0x0,-0x48(%rbp)
  400b48:	c6 45 bc 00          	movb   $0x0,-0x44(%rbp)
    char dst_mac[13]={0};
  400b4c:	48 c7 45 c0 00 00 00 	movq   $0x0,-0x40(%rbp)
  400b53:	00 
  400b54:	c7 45 c8 00 00 00 00 	movl   $0x0,-0x38(%rbp)
  400b5b:	c6 45 cc 00          	movb   $0x0,-0x34(%rbp)

    memcpy(&ether,data,sizeof(ether));
  400b5f:	48 8b 85 48 ff ff ff 	mov    -0xb8(%rbp),%rax
  400b66:	48 8b 10             	mov    (%rax),%rdx
  400b69:	48 89 55 80          	mov    %rdx,-0x80(%rbp)
  400b6d:	8b 50 08             	mov    0x8(%rax),%edx
  400b70:	89 55 88             	mov    %edx,-0x78(%rbp)
  400b73:	0f b7 40 0c          	movzwl 0xc(%rax),%eax
  400b77:	66 89 45 8c          	mov    %ax,-0x74(%rbp)
    memcpy(&ip,data+sizeof(ether),sizeof(ip));
  400b7b:	48 8b 85 48 ff ff ff 	mov    -0xb8(%rbp),%rax
  400b82:	48 83 c0 0e          	add    $0xe,%rax
  400b86:	48 8b 10             	mov    (%rax),%rdx
  400b89:	48 89 55 90          	mov    %rdx,-0x70(%rbp)
  400b8d:	48 8b 50 08          	mov    0x8(%rax),%rdx
  400b91:	48 89 55 98          	mov    %rdx,-0x68(%rbp)
  400b95:	8b 40 10             	mov    0x10(%rax),%eax
  400b98:	89 45 a0             	mov    %eax,-0x60(%rbp)
    memcpy(&tcp,data+sizeof(ether)+sizeof(ip),sizeof(tcp));
  400b9b:	48 8b 85 48 ff ff ff 	mov    -0xb8(%rbp),%rax
  400ba2:	48 83 c0 22          	add    $0x22,%rax
  400ba6:	48 8b 10             	mov    (%rax),%rdx
  400ba9:	48 89 95 60 ff ff ff 	mov    %rdx,-0xa0(%rbp)
  400bb0:	48 8b 50 08          	mov    0x8(%rax),%rdx
  400bb4:	48 89 95 68 ff ff ff 	mov    %rdx,-0x98(%rbp)
  400bbb:	8b 40 10             	mov    0x10(%rax),%eax
  400bbe:	89 85 70 ff ff ff    	mov    %eax,-0x90(%rbp)


    for (i=0;i<6;i++)
  400bc4:	c7 85 54 ff ff ff 00 	movl   $0x0,-0xac(%rbp)
  400bcb:	00 00 00 
  400bce:	e9 81 00 00 00       	jmpq   400c54 <isPort+0x186>
    {
        sprintf(src_mac+i*2,"%02x",((unsigned char *)&ether.src)[i]);
  400bd3:	8b 85 54 ff ff ff    	mov    -0xac(%rbp),%eax
  400bd9:	48 98                	cltq   
  400bdb:	48 8d 55 80          	lea    -0x80(%rbp),%rdx
  400bdf:	48 01 d0             	add    %rdx,%rax
  400be2:	0f b6 00             	movzbl (%rax),%eax
  400be5:	0f b6 c0             	movzbl %al,%eax
  400be8:	8b 95 54 ff ff ff    	mov    -0xac(%rbp),%edx
  400bee:	01 d2                	add    %edx,%edx
  400bf0:	48 63 d2             	movslq %edx,%rdx
  400bf3:	48 8d 4d b0          	lea    -0x50(%rbp),%rcx
  400bf7:	48 01 d1             	add    %rdx,%rcx
  400bfa:	89 c2                	mov    %eax,%edx
  400bfc:	be 00 11 40 00       	mov    $0x401100,%esi
  400c01:	48 89 cf             	mov    %rcx,%rdi
  400c04:	b8 00 00 00 00       	mov    $0x0,%eax
  400c09:	e8 d2 fb ff ff       	callq  4007e0 <sprintf@plt>
        sprintf(dst_mac+i*2,"%02x",((unsigned char *)&ether.dst)[i]);
  400c0e:	8b 85 54 ff ff ff    	mov    -0xac(%rbp),%eax
  400c14:	48 98                	cltq   
  400c16:	48 8d 55 80          	lea    -0x80(%rbp),%rdx
  400c1a:	48 83 c2 06          	add    $0x6,%rdx
  400c1e:	48 01 d0             	add    %rdx,%rax
  400c21:	0f b6 00             	movzbl (%rax),%eax
  400c24:	0f b6 c0             	movzbl %al,%eax
  400c27:	8b 95 54 ff ff ff    	mov    -0xac(%rbp),%edx
  400c2d:	01 d2                	add    %edx,%edx
  400c2f:	48 63 d2             	movslq %edx,%rdx
  400c32:	48 8d 4d c0          	lea    -0x40(%rbp),%rcx
  400c36:	48 01 d1             	add    %rdx,%rcx
  400c39:	89 c2                	mov    %eax,%edx
  400c3b:	be 00 11 40 00       	mov    $0x401100,%esi
  400c40:	48 89 cf             	mov    %rcx,%rdi
  400c43:	b8 00 00 00 00       	mov    $0x0,%eax
  400c48:	e8 93 fb ff ff       	callq  4007e0 <sprintf@plt>
    memcpy(&ether,data,sizeof(ether));
    memcpy(&ip,data+sizeof(ether),sizeof(ip));
    memcpy(&tcp,data+sizeof(ether)+sizeof(ip),sizeof(tcp));


    for (i=0;i<6;i++)
  400c4d:	83 85 54 ff ff ff 01 	addl   $0x1,-0xac(%rbp)
  400c54:	83 bd 54 ff ff ff 05 	cmpl   $0x5,-0xac(%rbp)
  400c5b:	0f 8e 72 ff ff ff    	jle    400bd3 <isPort+0x105>
        sprintf(src_mac+i*2,"%02x",((unsigned char *)&ether.src)[i]);
        sprintf(dst_mac+i*2,"%02x",((unsigned char *)&ether.dst)[i]);
    }


    ret=ntohs(tcp.dst_port);
  400c61:	0f b7 85 62 ff ff ff 	movzwl -0x9e(%rbp),%eax
  400c68:	0f b7 c0             	movzwl %ax,%eax
  400c6b:	89 c7                	mov    %eax,%edi
  400c6d:	e8 5e fb ff ff       	callq  4007d0 <ntohs@plt>
  400c72:	0f b7 c0             	movzwl %ax,%eax
  400c75:	89 85 5c ff ff ff    	mov    %eax,-0xa4(%rbp)

    for (i=0;i<4;i++)
  400c7b:	c7 85 54 ff ff ff 00 	movl   $0x0,-0xac(%rbp)
  400c82:	00 00 00 
  400c85:	e9 ec 00 00 00       	jmpq   400d76 <isPort+0x2a8>
    {
        sprintf(src_ip+i*4,"%03d.",ip.scr_ip[i]);
  400c8a:	8b 85 54 ff ff ff    	mov    -0xac(%rbp),%eax
  400c90:	48 98                	cltq   
  400c92:	0f b6 44 05 9c       	movzbl -0x64(%rbp,%rax,1),%eax
  400c97:	0f b6 c0             	movzbl %al,%eax
  400c9a:	8b 95 54 ff ff ff    	mov    -0xac(%rbp),%edx
  400ca0:	c1 e2 02             	shl    $0x2,%edx
  400ca3:	48 63 d2             	movslq %edx,%rdx
  400ca6:	48 8d 4d d0          	lea    -0x30(%rbp),%rcx
  400caa:	48 01 d1             	add    %rdx,%rcx
  400cad:	89 c2                	mov    %eax,%edx
  400caf:	be 05 11 40 00       	mov    $0x401105,%esi
  400cb4:	48 89 cf             	mov    %rcx,%rdi
  400cb7:	b8 00 00 00 00       	mov    $0x0,%eax
  400cbc:	e8 1f fb ff ff       	callq  4007e0 <sprintf@plt>
        sprintf(dst_ip+i*4,"%03d.",ip.dst_ip[i]);
  400cc1:	8b 85 54 ff ff ff    	mov    -0xac(%rbp),%eax
  400cc7:	48 98                	cltq   
  400cc9:	0f b6 44 05 a0       	movzbl -0x60(%rbp,%rax,1),%eax
  400cce:	0f b6 c0             	movzbl %al,%eax
  400cd1:	8b 95 54 ff ff ff    	mov    -0xac(%rbp),%edx
  400cd7:	c1 e2 02             	shl    $0x2,%edx
  400cda:	48 63 d2             	movslq %edx,%rdx
  400cdd:	48 8d 4d e0          	lea    -0x20(%rbp),%rcx
  400ce1:	48 01 d1             	add    %rdx,%rcx
  400ce4:	89 c2                	mov    %eax,%edx
  400ce6:	be 05 11 40 00       	mov    $0x401105,%esi
  400ceb:	48 89 cf             	mov    %rcx,%rdi
  400cee:	b8 00 00 00 00       	mov    $0x0,%eax
  400cf3:	e8 e8 fa ff ff       	callq  4007e0 <sprintf@plt>
        if (i==3)
  400cf8:	83 bd 54 ff ff ff 03 	cmpl   $0x3,-0xac(%rbp)
  400cff:	75 6e                	jne    400d6f <isPort+0x2a1>
        {
            sprintf(src_ip+i*4,"%03d",ip.scr_ip[i]);
  400d01:	8b 85 54 ff ff ff    	mov    -0xac(%rbp),%eax
  400d07:	48 98                	cltq   
  400d09:	0f b6 44 05 9c       	movzbl -0x64(%rbp,%rax,1),%eax
  400d0e:	0f b6 c0             	movzbl %al,%eax
  400d11:	8b 95 54 ff ff ff    	mov    -0xac(%rbp),%edx
  400d17:	c1 e2 02             	shl    $0x2,%edx
  400d1a:	48 63 d2             	movslq %edx,%rdx
  400d1d:	48 8d 4d d0          	lea    -0x30(%rbp),%rcx
  400d21:	48 01 d1             	add    %rdx,%rcx
  400d24:	89 c2                	mov    %eax,%edx
  400d26:	be 0b 11 40 00       	mov    $0x40110b,%esi
  400d2b:	48 89 cf             	mov    %rcx,%rdi
  400d2e:	b8 00 00 00 00       	mov    $0x0,%eax
  400d33:	e8 a8 fa ff ff       	callq  4007e0 <sprintf@plt>
            sprintf(dst_ip+i*4,"%03d",ip.dst_ip[i]);
  400d38:	8b 85 54 ff ff ff    	mov    -0xac(%rbp),%eax
  400d3e:	48 98                	cltq   
  400d40:	0f b6 44 05 a0       	movzbl -0x60(%rbp,%rax,1),%eax
  400d45:	0f b6 c0             	movzbl %al,%eax
  400d48:	8b 95 54 ff ff ff    	mov    -0xac(%rbp),%edx
  400d4e:	c1 e2 02             	shl    $0x2,%edx
  400d51:	48 63 d2             	movslq %edx,%rdx
  400d54:	48 8d 4d e0          	lea    -0x20(%rbp),%rcx
  400d58:	48 01 d1             	add    %rdx,%rcx
  400d5b:	89 c2                	mov    %eax,%edx
  400d5d:	be 0b 11 40 00       	mov    $0x40110b,%esi
  400d62:	48 89 cf             	mov    %rcx,%rdi
  400d65:	b8 00 00 00 00       	mov    $0x0,%eax
  400d6a:	e8 71 fa ff ff       	callq  4007e0 <sprintf@plt>
    }


    ret=ntohs(tcp.dst_port);

    for (i=0;i<4;i++)
  400d6f:	83 85 54 ff ff ff 01 	addl   $0x1,-0xac(%rbp)
  400d76:	83 bd 54 ff ff ff 03 	cmpl   $0x3,-0xac(%rbp)
  400d7d:	0f 8e 07 ff ff ff    	jle    400c8a <isPort+0x1bc>
            sprintf(dst_ip+i*4,"%03d",ip.dst_ip[i]);
        }
    }


    switch (ret)
  400d83:	8b 85 5c ff ff ff    	mov    -0xa4(%rbp),%eax
  400d89:	83 f8 17             	cmp    $0x17,%eax
  400d8c:	0f 84 89 00 00 00    	je     400e1b <isPort+0x34d>
  400d92:	83 f8 17             	cmp    $0x17,%eax
  400d95:	7f 0f                	jg     400da6 <isPort+0x2d8>
  400d97:	83 f8 15             	cmp    $0x15,%eax
  400d9a:	74 51                	je     400ded <isPort+0x31f>
  400d9c:	83 f8 16             	cmp    $0x16,%eax
  400d9f:	74 1e                	je     400dbf <isPort+0x2f1>
  400da1:	e9 f5 00 00 00       	jmpq   400e9b <isPort+0x3cd>
  400da6:	83 f8 50             	cmp    $0x50,%eax
  400da9:	0f 84 97 00 00 00    	je     400e46 <isPort+0x378>
  400daf:	3d bb 01 00 00       	cmp    $0x1bb,%eax
  400db4:	0f 84 b7 00 00 00    	je     400e71 <isPort+0x3a3>
  400dba:	e9 dc 00 00 00       	jmpq   400e9b <isPort+0x3cd>
    {
    case 22:
        flag=22;
  400dbf:	c7 85 58 ff ff ff 16 	movl   $0x16,-0xa8(%rbp)
  400dc6:	00 00 00 
        printf("it is SSH\t count:%d\nsrc-ip:%s\t dst-ip:%s\n",num,src_ip,dst_ip);
  400dc9:	48 8d 4d e0          	lea    -0x20(%rbp),%rcx
  400dcd:	48 8d 55 d0          	lea    -0x30(%rbp),%rdx
  400dd1:	8b 85 40 ff ff ff    	mov    -0xc0(%rbp),%eax
  400dd7:	89 c6                	mov    %eax,%esi
  400dd9:	bf 10 11 40 00       	mov    $0x401110,%edi
  400dde:	b8 00 00 00 00       	mov    $0x0,%eax
  400de3:	e8 88 f9 ff ff       	callq  400770 <printf@plt>
        break;
  400de8:	e9 ae 00 00 00       	jmpq   400e9b <isPort+0x3cd>
    case 21:
        flag=21;
  400ded:	c7 85 58 ff ff ff 15 	movl   $0x15,-0xa8(%rbp)
  400df4:	00 00 00 
        printf("it is FPT\t count:%d\nsrc-ip:%s\t dst-ip:%s\n",num,src_ip,dst_ip);
  400df7:	48 8d 4d e0          	lea    -0x20(%rbp),%rcx
  400dfb:	48 8d 55 d0          	lea    -0x30(%rbp),%rdx
  400dff:	8b 85 40 ff ff ff    	mov    -0xc0(%rbp),%eax
  400e05:	89 c6                	mov    %eax,%esi
  400e07:	bf 40 11 40 00       	mov    $0x401140,%edi
  400e0c:	b8 00 00 00 00       	mov    $0x0,%eax
  400e11:	e8 5a f9 ff ff       	callq  400770 <printf@plt>
        break;
  400e16:	e9 80 00 00 00       	jmpq   400e9b <isPort+0x3cd>
    case 23:
        flag=23;
  400e1b:	c7 85 58 ff ff ff 17 	movl   $0x17,-0xa8(%rbp)
  400e22:	00 00 00 
        printf("it is Telnet\t count:%d\nsrc-ip:%s\t dst-ip:%s\n",num,src_ip,dst_ip);
  400e25:	48 8d 4d e0          	lea    -0x20(%rbp),%rcx
  400e29:	48 8d 55 d0          	lea    -0x30(%rbp),%rdx
  400e2d:	8b 85 40 ff ff ff    	mov    -0xc0(%rbp),%eax
  400e33:	89 c6                	mov    %eax,%esi
  400e35:	bf 70 11 40 00       	mov    $0x401170,%edi
  400e3a:	b8 00 00 00 00       	mov    $0x0,%eax
  400e3f:	e8 2c f9 ff ff       	callq  400770 <printf@plt>
        break;
  400e44:	eb 55                	jmp    400e9b <isPort+0x3cd>
    case 80:
        flag=80;
  400e46:	c7 85 58 ff ff ff 50 	movl   $0x50,-0xa8(%rbp)
  400e4d:	00 00 00 
        printf("it is HTTP\t count:%d\nsrc-ip:%s\t dst-ip:%s\n",num,src_ip,dst_ip);
  400e50:	48 8d 4d e0          	lea    -0x20(%rbp),%rcx
  400e54:	48 8d 55 d0          	lea    -0x30(%rbp),%rdx
  400e58:	8b 85 40 ff ff ff    	mov    -0xc0(%rbp),%eax
  400e5e:	89 c6                	mov    %eax,%esi
  400e60:	bf a0 11 40 00       	mov    $0x4011a0,%edi
  400e65:	b8 00 00 00 00       	mov    $0x0,%eax
  400e6a:	e8 01 f9 ff ff       	callq  400770 <printf@plt>
        break;
  400e6f:	eb 2a                	jmp    400e9b <isPort+0x3cd>
    case 443:
        flag=443;
  400e71:	c7 85 58 ff ff ff bb 	movl   $0x1bb,-0xa8(%rbp)
  400e78:	01 00 00 
        printf("it is HTTPS\t count:%d\nsrc-ip:%s\t dst-ip:%s\n",num,src_ip,dst_ip);
  400e7b:	48 8d 4d e0          	lea    -0x20(%rbp),%rcx
  400e7f:	48 8d 55 d0          	lea    -0x30(%rbp),%rdx
  400e83:	8b 85 40 ff ff ff    	mov    -0xc0(%rbp),%eax
  400e89:	89 c6                	mov    %eax,%esi
  400e8b:	bf d0 11 40 00       	mov    $0x4011d0,%edi
  400e90:	b8 00 00 00 00       	mov    $0x0,%eax
  400e95:	e8 d6 f8 ff ff       	callq  400770 <printf@plt>
        break;
  400e9a:	90                   	nop
    }

    printf("src_mac:%s\t dst_mac:%s\n",src_mac,dst_mac);
  400e9b:	48 8d 55 c0          	lea    -0x40(%rbp),%rdx
  400e9f:	48 8d 45 b0          	lea    -0x50(%rbp),%rax
  400ea3:	48 89 c6             	mov    %rax,%rsi
  400ea6:	bf fc 11 40 00       	mov    $0x4011fc,%edi
  400eab:	b8 00 00 00 00       	mov    $0x0,%eax
  400eb0:	e8 bb f8 ff ff       	callq  400770 <printf@plt>
    printf("----------------------------------------------\n");
  400eb5:	bf 18 12 40 00       	mov    $0x401218,%edi
  400eba:	e8 91 f8 ff ff       	callq  400750 <puts@plt>
    return flag;
  400ebf:	8b 85 58 ff ff ff    	mov    -0xa8(%rbp),%eax
}
  400ec5:	48 8b 75 f8          	mov    -0x8(%rbp),%rsi
  400ec9:	64 48 33 34 25 28 00 	xor    %fs:0x28,%rsi
  400ed0:	00 00 
  400ed2:	74 05                	je     400ed9 <isPort+0x40b>
  400ed4:	e8 87 f8 ff ff       	callq  400760 <__stack_chk_fail@plt>
  400ed9:	c9                   	leaveq 
  400eda:	c3                   	retq   

0000000000400edb <isHTTP>:

int isHTTP(const char *data,int len,int num)
{
  400edb:	55                   	push   %rbp
  400edc:	48 89 e5             	mov    %rsp,%rbp
  400edf:	48 83 ec 60          	sub    $0x60,%rsp
  400ee3:	48 89 7d a8          	mov    %rdi,-0x58(%rbp)
  400ee7:	89 75 a4             	mov    %esi,-0x5c(%rbp)
  400eea:	89 55 a0             	mov    %edx,-0x60(%rbp)
  400eed:	64 48 8b 04 25 28 00 	mov    %fs:0x28,%rax
  400ef4:	00 00 
  400ef6:	48 89 45 f8          	mov    %rax,-0x8(%rbp)
  400efa:	31 c0                	xor    %eax,%eax
    Ethernet ether;
    IP ip;
    TCP tcp;
    // char buf[1024]={0};
    char *p=strstr(data+sizeof(ether)+sizeof(ip)+sizeof(tcp),"HTTP/1.");
  400efc:	48 8b 45 a8          	mov    -0x58(%rbp),%rax
  400f00:	48 83 c0 36          	add    $0x36,%rax
  400f04:	be 47 12 40 00       	mov    $0x401247,%esi
  400f09:	48 89 c7             	mov    %rax,%rdi
  400f0c:	e8 ef f8 ff ff       	callq  400800 <strstr@plt>
  400f11:	48 89 45 b8          	mov    %rax,-0x48(%rbp)
    if (p!=NULL)
  400f15:	48 83 7d b8 00       	cmpq   $0x0,-0x48(%rbp)
  400f1a:	74 1b                	je     400f37 <isHTTP+0x5c>
    {
        printf("it is HTTP\t count:%d\n",num);
  400f1c:	8b 45 a0             	mov    -0x60(%rbp),%eax
  400f1f:	89 c6                	mov    %eax,%esi
  400f21:	bf 4f 12 40 00       	mov    $0x40124f,%edi
  400f26:	b8 00 00 00 00       	mov    $0x0,%eax
  400f2b:	e8 40 f8 ff ff       	callq  400770 <printf@plt>
        return 1;
  400f30:	b8 01 00 00 00       	mov    $0x1,%eax
  400f35:	eb 05                	jmp    400f3c <isHTTP+0x61>
    }
    else
    {
        return 0;
  400f37:	b8 00 00 00 00       	mov    $0x0,%eax
    }
}
  400f3c:	48 8b 4d f8          	mov    -0x8(%rbp),%rcx
  400f40:	64 48 33 0c 25 28 00 	xor    %fs:0x28,%rcx
  400f47:	00 00 
  400f49:	74 05                	je     400f50 <isHTTP+0x75>
  400f4b:	e8 10 f8 ff ff       	callq  400760 <__stack_chk_fail@plt>
  400f50:	c9                   	leaveq 
  400f51:	c3                   	retq   

0000000000400f52 <isARPorRARP>:

int isARPorRARP(const char *data,int len,int num)
{
  400f52:	55                   	push   %rbp
  400f53:	48 89 e5             	mov    %rsp,%rbp
  400f56:	48 83 ec 40          	sub    $0x40,%rsp
  400f5a:	48 89 7d c8          	mov    %rdi,-0x38(%rbp)
  400f5e:	89 75 c4             	mov    %esi,-0x3c(%rbp)
  400f61:	89 55 c0             	mov    %edx,-0x40(%rbp)
  400f64:	64 48 8b 04 25 28 00 	mov    %fs:0x28,%rax
  400f6b:	00 00 
  400f6d:	48 89 45 f8          	mov    %rax,-0x8(%rbp)
  400f71:	31 c0                	xor    %eax,%eax
    Ethernet ether;
    int flag=0;
  400f73:	c7 45 dc 00 00 00 00 	movl   $0x0,-0x24(%rbp)
    memcpy(&ether,data,sizeof(ether));
  400f7a:	48 8b 45 c8          	mov    -0x38(%rbp),%rax
  400f7e:	48 8b 10             	mov    (%rax),%rdx
  400f81:	48 89 55 e0          	mov    %rdx,-0x20(%rbp)
  400f85:	8b 50 08             	mov    0x8(%rax),%edx
  400f88:	89 55 e8             	mov    %edx,-0x18(%rbp)
  400f8b:	0f b7 40 0c          	movzwl 0xc(%rax),%eax
  400f8f:	66 89 45 ec          	mov    %ax,-0x14(%rbp)
    //    printf("ether:%u\n",ether.protocol);
    if (ether.protocol==0x0608)    
  400f93:	0f b7 45 ec          	movzwl -0x14(%rbp),%eax
  400f97:	66 3d 08 06          	cmp    $0x608,%ax
  400f9b:	75 24                	jne    400fc1 <isARPorRARP+0x6f>
    {
        flag=1;
  400f9d:	c7 45 dc 01 00 00 00 	movl   $0x1,-0x24(%rbp)
        printf("ARP ether:%u\t count:%d\n",ether.protocol,num);
  400fa4:	0f b7 45 ec          	movzwl -0x14(%rbp),%eax
  400fa8:	0f b7 c0             	movzwl %ax,%eax
  400fab:	8b 55 c0             	mov    -0x40(%rbp),%edx
  400fae:	89 c6                	mov    %eax,%esi
  400fb0:	bf 65 12 40 00       	mov    $0x401265,%edi
  400fb5:	b8 00 00 00 00       	mov    $0x0,%eax
  400fba:	e8 b1 f7 ff ff       	callq  400770 <printf@plt>
  400fbf:	eb 2c                	jmp    400fed <isARPorRARP+0x9b>
    }
    else if (ether.protocol==0x3580)
  400fc1:	0f b7 45 ec          	movzwl -0x14(%rbp),%eax
  400fc5:	66 3d 80 35          	cmp    $0x3580,%ax
  400fc9:	75 22                	jne    400fed <isARPorRARP+0x9b>
    {
        flag=2;
  400fcb:	c7 45 dc 02 00 00 00 	movl   $0x2,-0x24(%rbp)
        printf("RARP ether:%u\t count:%d\n",ether.protocol,num);
  400fd2:	0f b7 45 ec          	movzwl -0x14(%rbp),%eax
  400fd6:	0f b7 c0             	movzwl %ax,%eax
  400fd9:	8b 55 c0             	mov    -0x40(%rbp),%edx
  400fdc:	89 c6                	mov    %eax,%esi
  400fde:	bf 7d 12 40 00       	mov    $0x40127d,%edi
  400fe3:	b8 00 00 00 00       	mov    $0x0,%eax
  400fe8:	e8 83 f7 ff ff       	callq  400770 <printf@plt>
    }

    switch (flag)
  400fed:	8b 45 dc             	mov    -0x24(%rbp),%eax
  400ff0:	83 f8 01             	cmp    $0x1,%eax
  400ff3:	74 07                	je     400ffc <isARPorRARP+0xaa>
  400ff5:	83 f8 02             	cmp    $0x2,%eax
  400ff8:	74 09                	je     401003 <isARPorRARP+0xb1>
  400ffa:	eb 0e                	jmp    40100a <isARPorRARP+0xb8>
    {
    case 1:
        return 1;
  400ffc:	b8 01 00 00 00       	mov    $0x1,%eax
  401001:	eb 0c                	jmp    40100f <isARPorRARP+0xbd>
    case 2:
        return 2;
  401003:	b8 02 00 00 00       	mov    $0x2,%eax
  401008:	eb 05                	jmp    40100f <isARPorRARP+0xbd>
    default:
        return 0;
  40100a:	b8 00 00 00 00       	mov    $0x0,%eax
    }
}
  40100f:	48 8b 4d f8          	mov    -0x8(%rbp),%rcx
  401013:	64 48 33 0c 25 28 00 	xor    %fs:0x28,%rcx
  40101a:	00 00 
  40101c:	74 05                	je     401023 <isARPorRARP+0xd1>
  40101e:	e8 3d f7 ff ff       	callq  400760 <__stack_chk_fail@plt>
  401023:	c9                   	leaveq 
  401024:	c3                   	retq   
  401025:	66 2e 0f 1f 84 00 00 	nopw   %cs:0x0(%rax,%rax,1)
  40102c:	00 00 00 
  40102f:	90                   	nop

0000000000401030 <__libc_csu_init>:
  401030:	41 57                	push   %r15
  401032:	41 56                	push   %r14
  401034:	41 89 ff             	mov    %edi,%r15d
  401037:	41 55                	push   %r13
  401039:	41 54                	push   %r12
  40103b:	4c 8d 25 be 0d 20 00 	lea    0x200dbe(%rip),%r12        # 601e00 <__frame_dummy_init_array_entry>
  401042:	55                   	push   %rbp
  401043:	48 8d 2d be 0d 20 00 	lea    0x200dbe(%rip),%rbp        # 601e08 <__init_array_end>
  40104a:	53                   	push   %rbx
  40104b:	49 89 f6             	mov    %rsi,%r14
  40104e:	49 89 d5             	mov    %rdx,%r13
  401051:	4c 29 e5             	sub    %r12,%rbp
  401054:	48 83 ec 08          	sub    $0x8,%rsp
  401058:	48 c1 fd 03          	sar    $0x3,%rbp
  40105c:	e8 b7 f6 ff ff       	callq  400718 <_init>
  401061:	48 85 ed             	test   %rbp,%rbp
  401064:	74 20                	je     401086 <__libc_csu_init+0x56>
  401066:	31 db                	xor    %ebx,%ebx
  401068:	0f 1f 84 00 00 00 00 	nopl   0x0(%rax,%rax,1)
  40106f:	00 
  401070:	4c 89 ea             	mov    %r13,%rdx
  401073:	4c 89 f6             	mov    %r14,%rsi
  401076:	44 89 ff             	mov    %r15d,%edi
  401079:	41 ff 14 dc          	callq  *(%r12,%rbx,8)
  40107d:	48 83 c3 01          	add    $0x1,%rbx
  401081:	48 39 eb             	cmp    %rbp,%rbx
  401084:	75 ea                	jne    401070 <__libc_csu_init+0x40>
  401086:	48 83 c4 08          	add    $0x8,%rsp
  40108a:	5b                   	pop    %rbx
  40108b:	5d                   	pop    %rbp
  40108c:	41 5c                	pop    %r12
  40108e:	41 5d                	pop    %r13
  401090:	41 5e                	pop    %r14
  401092:	41 5f                	pop    %r15
  401094:	c3                   	retq   
  401095:	90                   	nop
  401096:	66 2e 0f 1f 84 00 00 	nopw   %cs:0x0(%rax,%rax,1)
  40109d:	00 00 00 

00000000004010a0 <__libc_csu_fini>:
  4010a0:	f3 c3                	repz retq 

Disassembly of section .fini:

00000000004010a4 <_fini>:
  4010a4:	48 83 ec 08          	sub    $0x8,%rsp
  4010a8:	48 83 c4 08          	add    $0x8,%rsp
  4010ac:	c3                   	retq   
